((dp0
S'writings'
p1
I6277
sS'four'
p2
I2307
sS'wister'
p3
I6231
sS'ornate'
p4
I4226
sS'marching'
p5
I3646
sS'granting'
p6
I2517
sS'bemelmans'
p7
I808
sS'hermann'
p8
I2699
sS'lord'
p9
I3524
sS'regional'
p10
I4814
sS'prize'
p11
I4588
sS'wooden'
p12
I6249
sS'helsingborg'
p13
I2684
sS'wednesday'
p14
I6157
sS'persisted'
p15
I4370
sS'elections'
p16
I1955
sS'tires'
p17
I5797
sS'second'
p18
I5150
sS'sustaining'
p19
I5613
sS'scraped'
p20
I5134
sS'yefimov'
p21
I6305
sS'designing'
p22
I1735
sS'increasing'
p23
I2905
sS'pioneering'
p24
I4418
sS'hero'
p25
I2701
sS'gentiles'
p26
I2422
sS'reporter'
p27
I4859
sS'here'
p28
I2697
sS'reported'
p29
I4858
sS'china'
p30
I1247
sS'finkel'
p31
I2232
sS'substance'
p32
I5567
sS'elaborate'
p33
I1949
sS'climbed'
p34
I1333
sS'reports'
p35
I4861
sS'controversy'
p36
I1490
sS'karim'
p37
I3197
sS'poston'
p38
I4518
sS'military'
p39
I3798
sS"i'm"
p40
I2842
sS'criticism'
p41
I1561
sS'golden'
p42
I2474
sS'hamas'
p43
I2593
sS'brought'
p44
I999
sS'stern'
p45
I5502
sS'unit'
p46
I5965
sS'opponents'
p47
I4204
sS'cheating'
p48
I1219
sS'spoke'
p49
I5435
sS'dnc'
p50
I1826
sS'occupying'
p51
I4148
sS'music'
p52
I3958
sS'dns'
p53
I1827
sS'strike'
p54
I5542
sS'until'
p55
I5978
sS'wenatchee'
p56
I6171
sS'relay'
p57
I4827
sS'populations'
p58
I4497
sS'successful'
p59
I5573
sS'georgian'
p60
I2427
sS'luttrell'
p61
I3565
sS'90'
p62
I242
sS'hold'
p63
I2742
sS'95'
p64
I243
sS'96'
p65
I244
sS'locked'
p66
I3504
sS'famed'
p67
I2151
sS'accomplishment'
p68
I289
sS'plunged'
p69
I4454
sS'example'
p70
I2081
sS'jindal'
p71
I3114
sS'wang'
p72
I6118
sS'household'
p73
I2795
sS'want'
p74
I6119
sS'ahtisaari'
p75
I376
sS'travel'
p76
I5865
sS'damage'
p77
I1602
sS'machine'
p78
I3579
sS'how'
p79
I2800
sS'hot'
p80
I2788
sS'hor'
p81
I2774
sS'outlawed'
p82
I4244
sS'sankt'
p83
I5080
sS'helsinki'
p84
I2685
sS'qadian'
p85
I4675
sS'headquarters'
p86
I2654
sS'cigarettes'
p87
I1281
sS'unlawfully'
p88
I5972
sS'barnhart'
p89
I745
sS'democratic'
p90
I1704
sS'wing'
p91
I6222
sS'senators'
p92
I5179
sS'welcomed'
p93
I6166
sS'sargodha'
p94
I5087
sS'fidelity'
p95
I2205
sS'survivors'
p96
I5607
sS'wales'
p97
I6108
sS'fin'
p98
I2223
sS'undercut'
p99
I5955
sS'marabouts'
p100
I3642
sS'aufdenblatten'
p101
I656
sS'schools'
p102
I5115
sS'township'
p103
I5840
sS'saddened'
p104
I5053
sS'whitman'
p105
I6195
sS'represents'
p106
I4864
sS'lillian'
p107
I3459
sS'debut'
p108
I1649
sS'barton'
p109
I750
sS'ingrid'
p110
I2937
sS'burial'
p111
I1030
sS'series'
p112
I5200
sS'allam'
p113
I417
sS'cathedral'
p114
I1152
sS'ring'
p115
I4945
sS'touts'
p116
I5837
sS'triptych'
p117
I5885
sS're'
p118
I4764
sS'encourage'
p119
I1990
sS'engineer'
p120
I2005
sS'ri'
p121
I4921
sS'clarence'
p122
I1311
sS'assured'
p123
I625
sS'fugitive'
p124
I2353
sS'encountering'
p125
I1989
sS'knit'
p126
I3274
sS'sm9'
p127
I5347
sS'rahimi'
p128
I4720
sS'jannati'
p129
I3068
sS'petraeus'
p130
I4381
sS'wash'
p131
I6132
sS'fujimori'
p132
I2354
sS'olds'
p133
I4174
sS'basketball'
p134
I754
sS'xie'
p135
I6288
sS'service'
p136
I5205
sS'lawsuits'
p137
I3382
sS'engagement'
p138
I2002
sS'master'
p139
I3683
sS'listed'
p140
I3479
sS'nelnet'
p141
I4029
sS'legs'
p142
I3418
sS'hewitt'
p143
I2705
sS'geneva'
p144
I2419
sS'modena'
p145
I3848
sS'chairwoman'
p146
I1186
sS'samast'
p147
I5071
sS'trek'
p148
I5871
sS'showed'
p149
I5276
sS'ghanem'
p150
I2435
sS'ankaraspor'
p151
I493
sS'nations'
p152
I4000
sS'project'
p153
I4607
sS'bodyguards'
p154
I906
sS'seminary'
p155
I5175
sS'acclaim'
p156
I286
sS'runner'
p157
I5027
sS'boston'
p158
I940
sS'concordia'
p159
I1429
sS'bouake'
p160
I943
sS'dozen'
p161
I1863
sS'affairs'
p162
I342
sS'60th'
p163
I219
sS'responsible'
p164
I4889
sS'racers'
p165
I4707
sS'kremlin'
p166
I3303
sS'jadida'
p167
I3054
sS'victoria'
p168
I6048
sS'letter'
p169
I3428
sS'entry'
p170
I2021
sS'singer'
p171
I5315
sS'tass'
p172
I5676
sS'grove'
p173
I2548
sS'professor'
p174
I4603
sS'camp'
p175
I1084
sS'elissalde'
p176
I1962
sS'scream'
p177
I5135
sS'came'
p178
I1080
sS'plovdiv'
p179
I4450
sS'saying'
p180
I5100
sS'piepoli'
p181
I4411
sS'bomb'
p182
I916
sS'mateja'
p183
I3690
sS'teresa'
p184
I5713
sS'qaeda'
p185
I4676
sS'participate'
p186
I4308
sS'hungary'
p187
I2827
sS'lessons'
p188
I3426
sS'orleans'
p189
I4224
sS'busy'
p190
I1048
sS'became'
p191
I774
sS'rico'
p192
I4935
sS'bush'
p193
I1043
sS'meno'
p194
I3753
sS'rick'
p195
I4933
sS'rich'
p196
I4927
sS'mend'
p197
I3751
sS'velazquez'
p198
I6028
sS'hirvonen'
p199
I2728
sS'valenti'
p200
I6010
sS'klein'
p201
I3267
sS'honda'
p202
I2761
sS'xinjiang'
p203
I6290
sS'greene'
p204
I2532
sS'release'
p205
I4828
sS'benazir'
p206
I811
sS'disaster'
p207
I1794
sS'fair'
p208
I2136
sS'chulalongkorn'
p209
I1275
sS'result'
p210
I4895
sS'livni'
p211
I3495
sS'aragones'
p212
I539
sS'best'
p213
I832
sS'schorske'
p214
I5117
sS'ackerman'
p215
I298
sS'r'
p216
I4702
sS'ire'
p217
I3007
sS'redistricting'
p218
I4794
sS'men'
p219
I3750
sS'nature'
p220
I4005
sS'truncheons'
p221
I5895
sS'debt'
p222
I1648
sS'tyranny'
p223
I5931
sS'brown'
p224
I1001
sS'country'
p225
I1527
sS'edgar'
p226
I1923
sS'erupted'
p227
I2038
sS'planned'
p228
I4432
sS'asked'
p229
I604
sS'libyan'
p230
I3448
sS'chahine'
p231
I1182
sS'250'
p232
I169
sS'ana'
p233
I467
sS'holdings'
p234
I2743
sS'criticised'
p235
I1560
sS'fanchini'
p236
I2157
sS'much'
p237
I3932
sS'stadium'
p238
I5455
sS'ann'
p239
I494
sS'life'
p240
I3450
sS'sydney'
p241
I5630
sS'eastern'
p242
I1916
sS'hospitalized'
p243
I2782
sS'kwazulu'
p244
I3320
sS'worker'
p245
I6258
sS'noyd'
p246
I4117
sS'filmmaker'
p247
I2222
sS'dave'
p248
I1625
sS'chile'
p249
I1245
sS'child'
p250
I1242
sS'spangenberger'
p251
I5412
sS'worked'
p252
I6257
sS'spin'
p253
I5430
sS'commerce'
p254
I1391
sS'presidency'
p255
I4553
sS'castro'
p256
I1148
sS'calcium'
p257
I1065
sS'k'
p258
I3175
sS'skirts'
p259
I5332
sS'bin'
p260
I861
sS'played'
p261
I4442
sS'verges'
p262
I6033
sS'podsen'
p263
I4458
sS'player'
p264
I4443
sS'campaigning'
p265
I1088
sS'specter'
p266
I5424
sS'trustee'
p267
I5898
sS'damaged'
p268
I1603
sS'things'
p269
I5761
sS'harmony'
p270
I2622
sS'elliott'
p271
I1964
sS'cavanaugh'
p272
I1158
sS'european'
p273
I2061
sS'hosiery'
p274
I2779
sS'josef'
p275
I3144
sS'photographers'
p276
I4398
sS'tung'
p277
I5908
sS'drc'
p278
I1870
sS'lucas'
p279
I3547
sS'ruscha'
p280
I5031
sS'boyhood'
p281
I954
sS'dandenong'
p282
I1610
sS'indicts'
p283
I2918
sS'fantastic'
p284
I2160
sS'birmingham'
p285
I866
sS'somerville'
p286
I5381
sS'previous'
p287
I4565
sS'myanmar'
p288
I3970
sS'han'
p289
I2599
sS'hao'
p290
I2609
sS'ease'
p291
I1913
sS'had'
p292
I2581
sS'innocent'
p293
I2945
sS'prison'
p294
I4583
sS'shoemaker'
p295
I5258
sS'has'
p296
I2631
sS'hat'
p297
I2634
sS'elevation'
p298
I1959
sS'svensson'
p299
I5615
sS'posed'
p300
I4507
sS'possible'
p301
I4513
sS'birth'
p302
I867
sS'replace'
p303
I4852
sS'vigilante'
p304
I6061
sS'bobby'
p305
I902
sS'belediye'
p306
I794
sS'festivities'
p307
I2198
sS'jiashan'
p308
I3111
sS'ola'
p309
I4170
sS'attorney'
p310
I646
sS'right'
p311
I4942
sS'old'
p312
I4171
sS'yoweri'
p313
I6330
sS'crowd'
p314
I1568
sS'people'
p315
I4352
sS'czech'
p316
I1590
sS'crown'
p317
I1570
sS'mullings'
p318
I3942
sS'aridi'
p319
I556
sS'altoona'
p320
I445
sS'billboard'
p321
I858
sS'hemsworth'
p322
I2686
sS'ump'
p323
I5945
sS'for'
p324
I2285
sS'fox'
p325
I2309
sS'repression'
p326
I4865
sS'stefan'
p327
I5492
sS'rhone'
p328
I4918
sS'defensive'
p329
I1676
sS'losing'
p330
I3529
sS'manufacturing'
p331
I3637
sS'visitors'
p332
I6078
sS'dollars'
p333
I1838
sS'citizens'
p334
I1293
sS'bandar'
p335
I724
sS'palestinians'
p336
I4285
sS'nixon'
p337
I4071
sS'raised'
p338
I4725
sS'facility'
p339
I2127
sS'marshall'
p340
I3666
sS'mba'
p341
I3702
sS'soo'
p342
I5388
sS'son'
p343
I5384
sS'magazines'
p344
I3589
sS'raises'
p345
I4726
sS'reducing'
p346
I4796
sS'monson'
p347
I3873
sS'fabric'
p348
I2122
sS'novi'
p349
I4110
sS'support'
p350
I5593
sS'waite'
p351
I6104
sS'joseph'
p352
I3145
sS'jane'
p353
I3065
sS'jang'
p354
I3066
sS'happy'
p355
I2612
sS'offer'
p356
I4158
sS'stand'
p357
I5464
sS'delegation'
p358
I1690
sS'inside'
p359
I2947
sS'gilani'
p360
I2442
sS'complications'
p361
I1417
sS'wiratchant'
p362
I6229
sS'moderna'
p363
I3850
sS'berezovsky'
p364
I821
sS'adopt'
p365
I328
sS'liberal'
p366
I3442
sS'tournament'
p367
I5836
sS"''"
p368
I2
sS'roseville'
p369
I5003
sS'accounting'
p370
I293
sS'cassie'
p371
I1145
sS'holy'
p372
I2751
sS'eventual'
p373
I2071
sS'floor'
p374
I2263
sS'actor'
p375
I311
sS'acton'
p376
I310
sS'pasadena'
p377
I4318
sS'republic'
p378
I4867
sS'ambitious'
p379
I451
sS'jenkins'
p380
I3088
sS'roll'
p381
I4988
sS"'s"
p382
I7
sS'models'
p383
I3847
sS'trouble'
p384
I5889
sS'persecution'
p385
I4368
sS'explosions'
p386
I2100
sS'shootout'
p387
I5263
sS'rockers'
p388
I4976
sS'time'
p389
I5790
sS'push'
p390
I4669
sS'decision'
p391
I1656
sS'equalizer'
p392
I2029
sS'cincinnati'
p393
I1283
sS'corps'
p394
I1506
sS'theaters'
p395
I5739
sS'chair'
p396
I1183
sS'ballet'
p397
I718
sS'fazlullah'
p398
I2173
sS'silencers'
p399
I5299
sS'burlington'
p400
I1032
sS'thion'
p401
I5763
sS'lrb'
p402
I3544
sS'alexakis'
p403
I406
sS'choice'
p404
I1253
sS'wharton'
p405
I6185
sS'minute'
p406
I3818
sS'room'
p407
I4996
sS'epic'
p408
I2026
sS'leave'
p409
I3399
sS'holliday'
p410
I2746
sS'coincidences'
p411
I1356
sS'team'
p412
I5688
sS'speculation'
p413
I5425
sS'boca'
p414
I903
sS'sign'
p415
I5293
sS'chopping'
p416
I1257
sS'jamison'
p417
I3063
sS'elton'
p418
I1967
sS'abdullah'
p419
I265
sS'current'
p420
I1582
sS'kavanaugh'
p421
I3208
sS'grandparents'
p422
I2511
sS'funeral'
p423
I2364
sS'mangakino'
p424
I3626
sS'address'
p425
I319
sS'along'
p426
I436
sS'studied'
p427
I5554
sS'funded'
p428
I2362
sS'cervantes'
p429
I1178
sS'myers'
p430
I3971
sS'studies'
p431
I5555
sS'love'
p432
I3537
sS'logical'
p433
I3511
sS'working'
p434
I6260
sS'perished'
p435
I4364
sS'positive'
p436
I4510
sS'angry'
p437
I489
sS'opposed'
p438
I4206
sS'syrians'
p439
I5638
sS'altenmarkt'
p440
I442
sS'prosecutor'
p441
I4632
sS'``'
p442
I250
sS'teased'
p443
I5690
sS'everywhere'
p444
I2075
sS'riders'
p445
I4937
sS'gregoire'
p446
I2536
sS'originally'
p447
I4222
sS'rutherford'
p448
I5039
sS'trounced'
p449
I5891
sS'values'
p450
I6013
sS'three'
p451
I5774
sS'tragic'
p452
I5851
sS'believed'
p453
I800
sS'awesome'
p454
I683
sS'hides'
p455
I2710
sS'allowed'
p456
I428
sS'stockbroker'
p457
I5510
sS'stole'
p458
I5514
sS'vancouver'
p459
I6015
sS'bernini'
p460
I829
sS'edinburgh'
p461
I1924
sS'latte'
p462
I3366
sS'nagyvaszony'
p463
I3978
sS'improving'
p464
I2894
sS'such'
p465
I5577
sS'surfing'
p466
I5598
sS'natural'
p467
I4003
sS'biographical'
p468
I864
sS'st'
p469
I5452
sS'so'
p470
I5361
sS'truce'
p471
I5892
sS'pulled'
p472
I4658
sS'se'
p473
I5139
sS'kong'
p474
I3290
sS'kony'
p475
I3291
sS'oakley'
p476
I4137
sS'aviv'
p477
I676
sS'troubled'
p478
I5890
sS'decades'
p479
I1652
sS'parades'
p480
I4295
sS'musee'
p481
I3953
sS'<PAD/>'
p482
I245
sS'nation'
p483
I3995
sS'course'
p484
I1535
sS'sidon'
p485
I5289
sS'bowling'
p486
I949
sS'amnesty'
p487
I460
sS'quarter'
p488
I4686
sS'quartet'
p489
I4688
sS'square'
p490
I5451
sS'garbajosa'
p491
I2389
sS'entering'
p492
I2014
sS'sexually'
p493
I5220
sS'regionally'
p494
I4815
sS'canvas'
p495
I1102
sS'container'
p496
I1478
sS'rioters'
p497
I4947
sS'goteborg'
p498
I2489
sS'replacing'
p499
I4855
sS'investigation'
p500
I2996
sS'internet'
p501
I2980
sS'sainthood'
p502
I5058
sS'siege'
p503
I5291
sS'million'
p504
I3800
sS'possibility'
p505
I4512
sS'pennsylvanian'
p506
I4351
sS'lucrative'
p507
I3550
sS'poems'
p508
I4460
sS'wojnarowski'
p509
I6241
sS'cisse'
p510
I1288
sS'training'
p511
I5856
sS'collapsing'
p512
I1360
sS'driscoll'
p513
I1876
sS'massive'
p514
I3681
sS'garnering'
p515
I2394
sS'one'
p516
I4189
sS'spanish'
p517
I5413
sS'vote'
p518
I6095
sS'braunau'
p519
I966
sS'open'
p520
I4195
sS'kuan'
p521
I3309
sS'city'
p522
I1296
sS'teacher'
p523
I5686
sS'2'
p524
I143
sS'draft'
p525
I1867
sS'mcaleese'
p526
I3703
sS'separatists'
p527
I5193
sS'walid'
p528
I6109
sS'williams'
p529
I6214
sS'shawn'
p530
I5237
sS'rival'
p531
I4954
sS'eurosceptic'
p532
I2062
sS'future'
p533
I2368
sS'1924'
p534
I71
sS'russia'
p535
I5036
sS'prospect'
p536
I4634
sS'illness'
p537
I2866
sS'san'
p538
I5075
sS'sam'
p539
I5069
sS'turned'
p540
I5918
sS'sad'
p541
I5051
sS'zuma'
p542
I6353
sS'say'
p543
I5099
sS'buried'
p544
I1031
sS'stanley'
p545
I5470
sS'sas'
p546
I5090
sS'allen'
p547
I424
sS'turner'
p548
I5919
sS'borough'
p549
I937
sS'saw'
p550
I5097
sS'elsewhere'
p551
I1966
sS'massu'
p552
I3682
sS'aside'
p553
I602
sS'zoo'
p554
I6351
sS'intends'
p555
I2969
sS'jefferson'
p556
I3084
sS'take'
p557
I5651
sS'destroy'
p558
I1738
sS'golan'
p559
I2471
sS'handing'
p560
I2601
sS'scovel'
p561
I5132
sS'malisse'
p562
I3616
sS'knew'
p563
I3271
sS'herschel'
p564
I2702
sS'printed'
p565
I4579
sS'remarks'
p566
I4837
sS'knee'
p567
I3270
sS'pages'
p568
I4273
sS'maoist'
p569
I3640
sS'phil'
p570
I4385
sS'liukin'
p571
I3488
sS'chiang'
p572
I1237
sS'salt'
p573
I5066
sS'laws'
p574
I3379
sS'operations'
p575
I4202
sS'cortina'
p576
I1510
sS'aggressive'
p577
I360
sS'weapons'
p578
I6152
sS'scion'
p579
I5123
sS'weizsaecker'
p580
I6164
sS'otis'
p581
I4235
sS'going'
p582
I2469
sS'loeseth'
p583
I3507
sS'congressional'
p584
I1448
sS'carolina'
p585
I1134
sS'woodbury'
p586
I6248
sS'assistant'
p587
I621
sS'awaiting'
p588
I679
sS'prime'
p589
I4574
sS'keenly'
p590
I3210
sS'artist'
p591
I589
sS'ahmad'
p592
I372
sS'roger'
p593
I4985
sS'landlord'
p594
I3349
sS'where'
p595
I6188
sS'16th'
p596
I35
sS'gangster'
p597
I2387
sS'us'
p598
I5994
sS'jeong'
p599
I3091
sS'bandundu'
p600
I725
sS'harvey'
p601
I2630
sS'sites'
p602
I5324
sS'dormitory'
p603
I1852
sS'hazleton'
p604
I2648
sS'screen'
p605
I5136
sS'concentrate'
p606
I1424
sS'cedric'
p607
I1163
sS'scieszka'
p608
I5122
sS'many'
p609
I3638
sS's'
p610
I5044
sS'residency'
p611
I4876
sS'chorizo'
p612
I1260
sS'riddle'
p613
I4936
sS'bhutto'
p614
I842
sS'hercus'
p615
I2696
sS'mccain'
p616
I3704
sS'mugabe'
p617
I3936
sS'twin'
p618
I5925
sS'anti'
p619
I510
sS'ghulam'
p620
I2436
sS'comeback'
p621
I1378
sS'considers'
p622
I1468
sS'plantation'
p623
I4436
sS'kerrey'
p624
I3226
sS'mounting'
p625
I3911
sS'susilo'
p626
I5608
sS'mutilating'
p627
I3966
sS'combined'
p628
I1376
sS'motives'
p629
I3902
sS'chan'
p630
I1193
sS'formed'
p631
I2296
sS'akjoujt'
p632
I388
sS'former'
p633
I2297
sS'isabella'
p634
I3016
sS'consultant'
p635
I1476
sS'polls'
p636
I4482
sS'prominence'
p637
I4613
sS'hayes'
p638
I2646
sS'policies'
p639
I4474
sS'newspaper'
p640
I4046
sS'pawlenty'
p641
I4336
sS'spotlight'
p642
I5439
sS'speedway'
p643
I5427
sS'demolition'
p644
I1706
sS'fame'
p645
I2150
sS'compatriots'
p646
I1410
sS'threatens'
p647
I5773
sS'shonibare'
p648
I5260
sS'comey'
p649
I1380
sS'breakdown'
p650
I969
sS'thawing'
p651
I5736
sS'putin'
p652
I4671
sS'singapore'
p653
I5314
sS'krantz'
p654
I3302
sS'anelka'
p655
I482
sS'booster'
p656
I929
sS'costs'
p657
I1516
sS'trains'
p658
I5858
sS'scholarship'
p659
I5111
sS'216'
p660
I163
sS'summer'
p661
I5586
sS'210'
p662
I162
sS'being'
p663
I787
sS'rest'
p664
I4890
sS'perlik'
p665
I4365
sS'weekly'
p666
I6161
sS'kadhafi'
p667
I3180
sS'overthrow'
p668
I4255
sS'libi'
p669
I3446
sS'around'
p670
I573
sS'woolmer'
p671
I6251
sS'assemblyman'
p672
I616
sS'traffic'
p673
I5849
sS'world'
p674
I6262
sS'clan'
p675
I1306
sS'werner'
p676
I6176
sS'maulana'
p677
I3695
sS'knox'
p678
I3281
sS'landowner'
p679
I3350
sS'lebanon'
p680
I3403
sS'perpetrators'
p681
I4366
sS'nicola'
p682
I4057
sS'wiggins'
p683
I6208
sS'sidi'
p684
I5287
sS'memories'
p685
I3748
sS'toto'
p686
I5827
sS'graeme'
p687
I2505
sS'chopra'
p688
I1258
sS'nicole'
p689
I4059
sS"l'engle"
p690
I3328
sS'mosley'
p691
I3895
sS'francois'
p692
I2321
sS'unsuccessfully'
p693
I5976
sS'power'
p694
I4527
sS'leno'
p695
I3420
sS'iconic'
p696
I2848
sS'leadership'
p697
I3389
sS'thailand'
p698
I5729
sS'went'
p699
I6173
sS'stone'
p700
I5515
sS'industry'
p701
I2926
sS'favorite'
p702
I2171
sS'masterpieces'
p703
I3684
sS'stony'
p704
I5516
sS'berger'
p705
I822
sS'flawed'
p706
I2256
sS'image'
p707
I2869
sS'mensah'
p708
I3754
sS'homeless'
p709
I2755
sS'portrayal'
p710
I4504
sS'rossi'
p711
I5005
sS'her'
p712
I2693
sS'philadelphia'
p713
I4386
sS'bangladeshi'
p714
I728
sS'worshippers'
p715
I6265
sS'sealed'
p716
I5140
sS'ago'
p717
I364
sS'congresswoman'
p718
I1450
sS'survived'
p719
I5605
sS'mich'
p720
I3772
sS'with'
p721
I6232
sS'pull'
p722
I4657
sS'rush'
p723
I5032
sS'october'
p724
I4151
sS'rescuing'
p725
I4873
sS'muggleton'
p726
I3937
sS'taught'
p727
I5681
sS'agree'
p728
I365
sS'regimes'
p729
I4811
sS'gone'
p730
I2478
sS'citizenship'
p731
I1294
sS'ah'
p732
I369
sS'virender'
p733
I6070
sS'am'
p734
I447
sS'al'
p735
I389
sS'an'
p736
I466
sS'ap'
p737
I519
sS'as'
p738
I594
sS'hypertension'
p739
I2839
sS'at'
p740
I627
sS'moniker'
p741
I3868
sS'bremen'
p742
I974
sS'vocational'
p743
I6085
sS'blagojevich'
p744
I876
sS'tight'
p745
I5785
sS'marktl'
p746
I3662
sS'kaczynski'
p747
I3179
sS'congress'
p748
I1447
sS'2005'
p749
I151
sS'waving'
p750
I6144
sS'beulah'
p751
I839
sS'natalie'
p752
I3994
sS'scranton'
p753
I5133
sS'firebrand'
p754
I2237
sS'cpc'
p755
I1539
sS'maliciously'
p756
I3613
sS'raphael'
p757
I4744
sS'fraudulent'
p758
I2329
sS'mass'
p759
I3679
sS'adam'
p760
I314
sS'original'
p761
I4221
sS'externally'
p762
I2110
sS'mirundi'
p763
I3821
sS'consider'
p764
I1464
sS'housepainter'
p765
I2796
sS'nikita'
p766
I4064
sS'ismail'
p767
I3022
sS'welfare'
p768
I6168
sS'jason'
p769
I3075
sS'causes'
p770
I1157
sS'violin'
p771
I6069
sS'careful'
p772
I1122
sS'tv'
p773
I5922
sS'cheney'
p774
I1229
sS'riots'
p775
I4949
sS'to'
p776
I5804
sS'nord'
p777
I4085
sS'smile'
p778
I5350
sS'andreev'
p779
I478
sS'midwest'
p780
I3784
sS'norm'
p781
I4087
sS'ta'
p782
I5641
sS'appointment'
p783
I530
sS'returned'
p784
I4904
sS'detention'
p785
I1743
sS'baton'
p786
I758
sS'candie'
p787
I1100
sS'utley'
p788
I6004
sS'condition'
p789
I1431
sS'minogue'
p790
I3816
sS'`'
p791
I249
sS'heist'
p792
I2674
sS'joined'
p793
I3132
sS'large'
p794
I3355
sS'harry'
p795
I2627
sS'small'
p796
I5349
sS'waldner'
p797
I6107
sS'penalties'
p798
I4347
sS'past'
p799
I4321
sS'piquionne'
p800
I4419
sS'healey'
p801
I2657
sS'pass'
p802
I4319
sS'villanova'
p803
I6066
sS'richard'
p804
I4928
sS'section'
p805
I5155
sS'nurse'
p806
I4126
sS'full'
p807
I2355
sS'christophe'
p808
I1267
sS'sarasota'
p809
I5086
sS'hours'
p810
I2792
sS'palin'
p811
I4287
sS'november'
p812
I4108
sS'outdone'
p813
I4242
sS'legend'
p814
I3412
sS'riviera'
p815
I4958
sS'experience'
p816
I2095
sS'prior'
p817
I4580
sS'schumacher'
p818
I5118
sS'action'
p819
I305
sS'vie'
p820
I6054
sS'enactment'
p821
I1988
sS'rattlesnakes'
p822
I4752
sS'captor'
p823
I1109
sS'abdel'
p824
I258
sS'iglesias'
p825
I2856
sS'silva'
p826
I5301
sS'850'
p827
I239
sS'trips'
p828
I5884
sS'sialkot'
p829
I5283
sS'archives'
p830
I546
sS'6'
p831
I215
sS'more'
p832
I3882
sS'door'
p833
I1851
sS'livingstone'
p834
I3494
sS'company'
p835
I1408
sS'batsman'
p836
I759
sS'jauzion'
p837
I3076
sS'damien'
p838
I1606
sS'science'
p839
I5120
sS'installing'
p840
I2956
sS'scarlett'
p841
I5104
sS'morgan'
p842
I3885
sS'memoirs'
p843
I3746
sS'suggestions'
p844
I5581
sS'staten'
p845
I5481
sS'izear'
p846
I3043
sS'autumn'
p847
I673
sS'biden'
p848
I851
sS'sense'
p849
I5185
sS'dress'
p850
I1872
sS'huge'
p851
I2814
sS'hugo'
p852
I2815
sS'dismissed'
p853
I1805
sS'glowing'
p854
I2460
sS'ingesting'
p855
I2935
sS'waved'
p856
I6142
sS'plant'
p857
I4435
sS'seoul'
p858
I5190
sS'countryside'
p859
I1529
sS'plane'
p860
I4431
sS'waves'
p861
I6143
sS'ethics'
p862
I2052
sS'unbeaten'
p863
I5950
sS'frasconi'
p864
I2326
sS'annapolis'
p865
I496
sS'ito'
p866
I3038
sS'mexican'
p867
I3767
sS'bowl'
p868
I948
sS'fraser'
p869
I2327
sS'westen'
p870
I6178
sS'installed'
p871
I2955
sS'embassy'
p872
I1972
sS'scott'
p873
I5130
sS'signs'
p874
I5297
sS'its'
p875
I3039
sS'roots'
p876
I4998
sS'polarizing'
p877
I4471
sS'nureddin'
p878
I4124
sS'isaac'
p879
I3015
sS'ally'
p880
I431
sS'lowell'
p881
I3540
sS'always'
p882
I446
sS'chandra'
p883
I1196
sS'cnnmobile'
p884
I1344
sS'found'
p885
I2304
sS'shocking'
p886
I5257
sS'lantern'
p887
I3351
sS'week'
p888
I6158
sS'england'
p889
I2006
sS'reduce'
p890
I4795
sS'carvalho'
p891
I1141
sS'yousuf'
p892
I6328
sS'operation'
p893
I4201
sS'embattled'
p894
I1973
sS'missed'
p895
I3825
sS'blacks'
p896
I874
sS'jiangsu'
p897
I3109
sS'jeremiah'
p898
I3092
sS'sparked'
p899
I5414
sS'itabashi'
p900
I3032
sS'bartholomew'
p901
I749
sS'director'
p902
I1789
sS'owners'
p903
I4260
sS'reared'
p904
I4771
sS'positioning'
p905
I4509
sS'diaspora'
p906
I1764
sS'belleville'
p907
I802
sS'w'
p908
I6103
sS'contingency'
p909
I1481
sS'grossman'
p910
I2543
sS'major'
p911
I3604
sS'chapfika'
p912
I1203
sS'forwards'
p913
I2301
sS'belligerent'
p914
I803
sS'hinckley'
p915
I2722
sS'number'
p916
I4121
sS'borchardt'
p917
I930
sS'kobe'
p918
I3282
sS'heads'
p919
I2655
sS'jet'
p920
I3102
sS'introduction'
p921
I2987
sS'saint'
p922
I5057
sS'jee'
p923
I3083
sS'jen'
p924
I3086
sS'relationship'
p925
I4825
sS'interviewed'
p926
I2985
sS'fabien'
p927
I2120
sS'grace'
p928
I2500
sS'obama'
p929
I4138
sS'iranian'
p930
I3003
sS'ningbo'
p931
I4068
sS'video'
p932
I6050
sS'remembers'
p933
I4841
sS'fights'
p934
I2213
sS'defect'
p935
I1669
sS'woonsocket'
p936
I6252
sS'meena'
p937
I3728
sS'nikolay'
p938
I4065
sS'friedlander'
p939
I2344
sS'self'
p940
I5173
sS'also'
p941
I441
sS'sebastiano'
p942
I5148
sS'play'
p943
I4441
sS'jerzy'
p944
I3098
sS'singles'
p945
I5317
sS'raucous'
p946
I4753
sS'brooklyn'
p947
I996
sS'bessmertnova'
p948
I831
sS'plan'
p949
I4430
sS'rayneri'
p950
I4760
sS'understands'
p951
I5957
sS'omaha'
p952
I4185
sS'seize'
p953
I5169
sS'cover'
p954
I1538
sS'hamid'
p955
I2594
sS'1685'
p956
I34
sS'artistic'
p957
I590
sS'citroen'
p958
I1295
sS'attacking'
p959
I637
sS'gold'
p960
I2472
sS'accommodations'
p961
I288
sS'aghast'
p962
I362
sS'hayling'
p963
I2647
sS'session'
p964
I5207
sS'occupation'
p965
I4145
sS'wraps'
p966
I6270
sS'writes'
p967
I6275
sS'writer'
p968
I6274
sS'wayne'
p969
I6147
sS'brownback'
p970
I1002
sS'pavarotti'
p971
I4335
sS'actions'
p972
I306
sS'reporters'
p973
I4860
sS'banner'
p974
I731
sS'devoured'
p975
I1758
sS'cry'
p976
I1573
sS'croatia'
p977
I1564
sS'set'
p978
I5208
sS'activists'
p979
I309
sS'byron'
p980
I1058
sS'sex'
p981
I5219
sS'sen'
p982
I5176
sS'mangel'
p983
I3627
sS'spirits'
p984
I5431
sS'movie'
p985
I3920
sS'currently'
p986
I1583
sS'saakashvili'
p987
I5047
sS'goggins'
p988
I2467
sS'knowing'
p989
I3277
sS'targeted'
p990
I5670
sS'incident'
p991
I2898
sS'death'
p992
I1643
sS'tarver'
p993
I5674
sS'legislature'
p994
I3416
sS'improved'
p995
I2892
sS'mottaki'
p996
I3907
sS'influential'
p997
I2931
sS'patti'
p998
I4331
sS'connection'
p999
I1454
sS'malden'
p1000
I3611
sS'\\?'
p1001
I248
sS'messiah'
p1002
I3765
sS'drunk'
p1003
I1884
sS'loan'
p1004
I3500
sS'northeastern'
p1005
I4093
sS'allegiance'
p1006
I423
sS'community'
p1007
I1404
sS'prestatyn'
p1008
I4561
sS'agents'
p1009
I359
sS'novosti'
p1010
I4114
sS'church'
p1011
I1277
sS'indefinite'
p1012
I2908
sS'devin'
p1013
I1754
sS'warfield'
p1014
I6123
sS'palace'
p1015
I4283
sS'convicted'
p1016
I1493
sS'suburbs'
p1017
I5570
sS'assassinated'
p1018
I610
sS'firm'
p1019
I2242
sS'raced'
p1020
I4706
sS'champion'
p1021
I1190
sS'fire'
p1022
I2236
sS'39'
p1023
I188
sS'abdirahman'
p1024
I260
sS'spearheaded'
p1025
I5420
sS'consulate'
p1026
I1475
sS'weinstein'
p1027
I6163
sS'dwyer'
p1028
I1900
sS'mlc'
p1029
I3840
sS'handling'
p1030
I2604
sS'judicial'
p1031
I3157
sS'straight'
p1032
I5525
sS'mls'
p1033
I3841
sS'pressed'
p1034
I4559
sS'leaning'
p1035
I3395
sS'ross'
p1036
I5004
sS'piaf'
p1037
I4403
sS'robin'
p1038
I4969
sS'scheduled'
p1039
I5106
sS'pound'
p1040
I4522
sS'hoping'
p1041
I2773
sS'templeton'
p1042
I5703
sS'backing'
p1043
I701
sS'moti'
p1044
I3901
sS'von'
p1045
I6093
sS'owen'
p1046
I4257
sS'36'
p1047
I186
sS'mott'
p1048
I3906
sS'triple'
p1049
I5882
sS'renounced'
p1050
I4848
sS'wreaths'
p1051
I6272
sS'barnes'
p1052
I743
sS'virtually'
p1053
I6073
sS'comprehensive'
p1054
I1419
sS'recent'
p1055
I4782
sS'early'
p1056
I1909
sS'stephanie'
p1057
I5498
sS'awtrey'
p1058
I685
sS'person'
p1059
I4371
sS'kelly'
p1060
I3214
sS'comprise'
p1061
I1420
sS'lester'
p1062
I3427
sS'using'
p1063
I5998
sS'kucinich'
p1064
I3310
sS'fitting'
p1065
I2247
sS'aloha'
p1066
I435
sS'rangers'
p1067
I4741
sS'parents'
p1068
I4299
sS'location'
p1069
I3503
sS'homeland'
p1070
I2754
sS'indonesian'
p1071
I2924
sS'australia'
p1072
I662
sS'victims'
p1073
I6046
sS'demands'
p1074
I1699
sS'couple'
p1075
I1532
sS'maati'
p1076
I3575
sS'suffering'
p1077
I5579
sS'nanjing'
p1078
I3986
sS'projects'
p1079
I4608
sS'formal'
p1080
I2294
sS'chekhov'
p1081
I1225
sS'imposed'
p1082
I2886
sS'd'
p1083
I1591
sS'continue'
p1084
I1482
sS'stylish'
p1085
I5562
sS'senate'
p1086
I5177
sS'spring'
p1087
I5443
sS'palm'
p1088
I4288
sS'mideast'
p1089
I3782
sS'emigrating'
p1090
I1978
sS'goulet'
p1091
I2491
sS'saraiva'
p1092
I5085
sS'slovenia'
p1093
I5345
sS'be'
p1094
I766
sS'performed'
p1095
I4359
sS'word'
p1096
I6254
sS'bo'
p1097
I897
sS'badawi'
p1098
I705
sS'agreement'
p1099
I367
sS'mstislav'
p1100
I3928
sS'clancy'
p1101
I1307
sS'santa'
p1102
I5081
sS'ugandan'
p1103
I5938
sS'carol'
p1104
I1133
sS'by'
p1105
I1057
sS'ruutel'
p1106
I5040
sS'exaggerated'
p1107
I2080
sS'hatcher'
p1108
I2635
sS'melbourne'
p1109
I3736
sS'clinton'
p1110
I1335
sS'hometown'
p1111
I2760
sS'into'
p1112
I2986
sS'videotaping'
p1113
I6053
sS'osama'
p1114
I4229
sS'middleton'
p1115
I3781
sS'primarily'
p1116
I4572
sS'cho'
p1117
I1252
sS'pyle'
p1118
I4673
sS'kiichi'
p1119
I3243
sS'spending'
p1120
I5428
sS'exposed'
p1121
I2103
sS'custom'
p1122
I1584
sS'luczak'
p1123
I3552
sS'saparmurat'
p1124
I5083
sS'crackdown'
p1125
I1541
sS'opens'
p1126
I4198
sS'linz'
p1127
I3475
sS'jewish'
p1128
I3104
sS'pastor'
p1129
I4322
sS'atlantic'
p1130
I632
sS'pacific'
p1131
I4266
sS'line'
p1132
I3469
sS'considerable'
p1133
I1465
sS'posted'
p1134
I4515
sS'erich'
p1135
I2032
sS'up'
p1136
I5981
sS'ingelsten'
p1137
I2934
sS'morocco'
p1138
I3890
sS'un'
p1139
I5946
sS'marseille'
p1140
I3665
sS'nationalist'
p1141
I3997
sS'armstrong'
p1142
I570
sS'influence'
p1143
I2929
sS'janowicz'
p1144
I3069
sS'nouakchott'
p1145
I4103
sS'monotype'
p1146
I3872
sS'struggled'
p1147
I5548
sS'caracas'
p1148
I1116
sS'edwards'
p1149
I1933
sS'shin'
p1150
I5251
sS'sails'
p1151
I5056
sS'polonium'
p1152
I4483
sS'prosecution'
p1153
I4631
sS'lucia'
p1154
I3548
sS'sides'
p1155
I5286
sS'leaflets'
p1156
I3392
sS'interfaith'
p1157
I2976
sS'prolific'
p1158
I4610
sS'dealings'
p1159
I1640
sS'age'
p1160
I353
sS'summit'
p1161
I5587
sS'having'
p1162
I2642
sS'code'
p1163
I1353
sS'mosul'
p1164
I3899
sS'seemed'
p1165
I5164
sS'turkish'
p1166
I5915
sS'young'
p1167
I6322
sS'send'
p1168
I5180
sS'citing'
p1169
I1291
sS'dickinson'
p1170
I1766
sS'sens'
p1171
I5183
sS'meetings'
p1172
I3731
sS'sent'
p1173
I5187
sS'garden'
p1174
I2392
sS'torture'
p1175
I5825
sS'consuelo'
p1176
I1474
sS'continued'
p1177
I1483
sS'gurion'
p1178
I2571
sS'magic'
p1179
I3591
sS'harbor'
p1180
I2613
sS'experiencing'
p1181
I2096
sS'eve'
p1182
I2066
sS'fewer'
p1183
I2200
sS'try'
p1184
I5899
sS'race'
p1185
I4705
sS'leonardo'
p1186
I3421
sS'598'
p1187
I214
sS'mediterranean'
p1188
I3725
sS'hyde'
p1189
I2838
sS'victor'
p1190
I6047
sS'mollie'
p1191
I3859
sS'anton'
p1192
I514
sS'richmond'
p1193
I4932
sS'indian'
p1194
I2912
sS'bird'
p1195
I865
sS'xuren'
p1196
I6292
sS'lutheran'
p1197
I3564
sS'led'
p1198
I3404
sS'lee'
p1199
I3405
sS'leg'
p1200
I3408
sS'respectively'
p1201
I4886
sS'gathered'
p1202
I2403
sS'delivering'
p1203
I1695
sS'poverty'
p1204
I4526
sS'royals'
p1205
I5014
sS'manouchehr'
p1206
I3631
sS'invented'
p1207
I2991
sS'great'
p1208
I2525
sS'receive'
p1209
I4779
sS'jinnah'
p1210
I3117
sS'ould'
p1211
I4237
sS'derby'
p1212
I1723
sS'residents'
p1213
I4878
sS'windemere'
p1214
I6220
sS'makes'
p1215
I3607
sS'holmes'
p1216
I2748
sS'nazarbayev'
p1217
I4009
sS'standing'
p1218
I5466
sS'confidence'
p1219
I1437
sS'francis'
p1220
I2318
sS'illegal'
p1221
I2864
sS'ministers'
p1222
I3811
sS'next'
p1223
I4049
sS'leyden'
p1224
I3438
sS'baba'
p1225
I694
sS'levin'
p1226
I3433
sS'integrate'
p1227
I2963
sS'carrying'
p1228
I1138
sS'charkaoui'
p1229
I1210
sS'sharply'
p1230
I5234
sS'charity'
p1231
I1209
sS'alexei'
p1232
I409
sS'rice'
p1233
I4926
sS'poux'
p1234
I4525
sS'this'
p1235
I5765
sS'bargoed'
p1236
I741
sS'challenge'
p1237
I1188
sS'when'
p1238
I6187
sS'insists'
p1239
I2951
sS'thin'
p1240
I5759
sS'cherubim'
p1241
I1233
sS'abssi'
p1242
I279
sS'process'
p1243
I4594
sS'high'
p1244
I2712
sS'zhuang'
p1245
I6346
sS'martyr'
p1246
I3671
sS'febres'
p1247
I2182
sS'delay'
p1248
I1686
sS'bilingual'
p1249
I856
sS'immendorff'
p1250
I2875
sS'luster'
p1251
I3562
sS'tied'
p1252
I5783
sS'bolelli'
p1253
I912
sS'gilera'
p1254
I2443
sS'ties'
p1255
I5784
sS'referring'
p1256
I4805
sS'daring'
p1257
I1618
sS'clarkson'
p1258
I1314
sS'nancy'
p1259
I3985
sS'intellectuals'
p1260
I2967
sS'dusautoir'
p1261
I1898
sS'houston'
p1262
I2799
sS'holds'
p1263
I2744
sS'bruning'
p1264
I1007
sS'thigh'
p1265
I5758
sS'producer'
p1266
I4599
sS'move'
p1267
I3915
sS'tamuz'
p1268
I5664
sS'produced'
p1269
I4598
sS'motorcycle'
p1270
I3904
sS'warren'
p1271
I6128
sS'perfect'
p1272
I4356
sS'goodside'
p1273
I2482
sS'degrees'
p1274
I1682
sS'puerta'
p1275
I4655
sS'puerto'
p1276
I4656
sS'2011'
p1277
I157
sS'2013'
p1278
I159
sS'2012'
p1279
I158
sS'hasina'
p1280
I2632
sS'seatbelt'
p1281
I5145
sS'outlined'
p1282
I4245
sS'archbishops'
p1283
I543
sS'nady'
p1284
I3976
sS'legendary'
p1285
I3413
sS'caucuses'
p1286
I1155
sS'outlines'
p1287
I4246
sS'presidential'
p1288
I4555
sS'liberia'
p1289
I3443
sS'betty'
p1290
I837
sS'quixote'
p1291
I4698
sS'calipari'
p1292
I1071
sS'doing'
p1293
I1837
sS'alejandro'
p1294
I405
sS'books'
p1295
I928
sS'qaida'
p1296
I4677
sS'witness'
p1297
I6237
sS"'"
p1298
I1
sS'rigging'
p1299
I4941
sS'shut'
p1300
I5281
sS'philosophy'
p1301
I4390
sS'greedy'
p1302
I2528
sS'shum'
p1303
I5280
sS'lynchburg'
p1304
I3568
sS'lod'
p1305
I3506
sS'mesmerized'
p1306
I3763
sS'dubbed'
p1307
I1887
sS'gallons'
p1308
I2376
sS'could'
p1309
I1518
sS'put'
p1310
I4670
sS'gibsonville'
p1311
I2440
sS'david'
p1312
I1626
sS'jinggang'
p1313
I3115
sS'davis'
p1314
I1627
sS'hussein'
p1315
I2834
sS'anita'
p1316
I490
sS'blown'
p1317
I894
sS'shenyang'
p1318
I5244
sS'scene'
p1319
I5105
sS'owned'
p1320
I4259
sS'jesus'
p1321
I3101
sS'muhammad'
p1322
I3939
sS'gatherings'
p1323
I2404
sS'buoyed'
p1324
I1027
sS'legislative'
p1325
I3414
sS'shaoshan'
p1326
I5228
sS'start'
p1327
I5474
sS'festival'
p1328
I2197
sS'system'
p1329
I5639
sS'upstate'
p1330
I5985
sS'percussion'
p1331
I4354
sS'painful'
p1332
I4275
sS'interests'
p1333
I2975
sS'stars'
p1334
I5473
sS'shorts'
p1335
I5270
sS'razzaq'
p1336
I4762
sS'moriarty'
p1337
I3886
sS'haven'
p1338
I2641
sS'colleagues'
p1339
I1361
sS'suresnes'
p1340
I5597
sS'split'
p1341
I5432
sS'roberto'
p1342
I4967
sS'roberts'
p1343
I4968
sS'gergiev'
p1344
I2429
sS'false'
p1345
I2147
sS'tonight'
p1346
I5814
sS'gibe'
p1347
I2438
sS'defending'
p1348
I1674
sS'cecil'
p1349
I1161
sS'viewed'
p1350
I6058
sS'mountainous'
p1351
I3909
sS'koreas'
p1352
I3294
sS'babel'
p1353
I695
sS'heff'
p1354
I2669
sS'ganges'
p1355
I2386
sS'linda'
p1356
I3467
sS'mille'
p1357
I3799
sS'lily'
p1358
I3460
sS'worldwide'
p1359
I6264
sS'allow'
p1360
I427
sS'jun'
p1361
I3163
sS'said'
p1362
I5055
sS'medal'
p1363
I3717
sS'batesville'
p1364
I757
sS'vasconcelos'
p1365
I6021
sS'face'
p1366
I2124
sS'komura'
p1367
I3289
sS'cks'
p1368
I1302
sS'wounded'
p1369
I6268
sS'fact'
p1370
I2129
sS'bring'
p1371
I986
sS'manchester'
p1372
I3624
sS'lloyd'
p1373
I3499
sS'rouge'
p1374
I5009
sS'asylum'
p1375
I626
sS'decade'
p1376
I1651
sS'novikova'
p1377
I4111
sS'jay'
p1378
I3080
sS'should'
p1379
I5273
sS'jan'
p1380
I3064
sS'planted'
p1381
I4437
sS'hope'
p1382
I2769
sS'jaber'
p1383
I3047
sS'meant'
p1384
I3713
sS'abbe'
p1385
I256
sS'handle'
p1386
I2602
sS'means'
p1387
I3712
sS'familiar'
p1388
I2152
sS'lucky'
p1389
I3549
sS'impeachment'
p1390
I2881
sS'h'
p1391
I2578
sS'rapper'
p1392
I4745
sS'extremists'
p1393
I2116
sS'stuff'
p1394
I5559
sS'allegation'
p1395
I418
sS'ohio'
p1396
I4166
sS'rein'
p1397
I4820
sS'raceway'
p1398
I4708
sS'strengthened'
p1399
I5538
sS'temporarily'
p1400
I5704
sS'frame'
p1401
I2311
sS'milloud'
p1402
I3802
sS'dungeon'
p1403
I1895
sS'lyon'
p1404
I3572
sS'insulting'
p1405
I2961
sS'nuclear'
p1406
I4119
sS'vows'
p1407
I6101
sS'pistol'
p1408
I4421
sS'shiite'
p1409
I5250
sS'ends'
p1410
I1999
sS'explosive'
p1411
I2101
sS'abdallahi'
p1412
I257
sS'bilan'
p1413
I854
sS'butte'
p1414
I1052
sS'lawsuit'
p1415
I3381
sS'drug'
p1416
I1883
sS'darryl'
p1417
I1621
sS'figures'
p1418
I2216
sS'bristol'
p1419
I987
sS'mizan'
p1420
I3839
sS'heart'
p1421
I2663
sS'co'
p1422
I1345
sS'ca'
p1423
I1060
sS'li'
p1424
I3439
sS'tikrit'
p1425
I5786
sS'silvio'
p1426
I5303
sS'faraj'
p1427
I2162
sS'lu'
p1428
I3545
sS'feather'
p1429
I2176
sS'yale'
p1430
I6296
sS'louisiana'
p1431
I3536
sS'meningitis'
p1432
I3752
sS'rioting'
p1433
I4948
sS'atlanta'
p1434
I631
sS'spain'
p1435
I5411
sS'maud'
p1436
I3694
sS'rbi'
p1437
I4763
sS'rigged'
p1438
I4940
sS'ultra'
p1439
I5943
sS'groin'
p1440
I2541
sS'yemeni'
p1441
I6309
sS'va'
p1442
I6007
sS'aesthetics'
p1443
I341
sS'liaqat'
p1444
I3441
sS'lush'
p1445
I3561
sS'site'
p1446
I5323
sS'badri'
p1447
I707
sS'vs'
p1448
I6102
sS'demanded'
p1449
I1698
sS'tenor'
p1450
I5709
sS'hubbard'
p1451
I2810
sS'juan'
p1452
I3153
sS'matthew'
p1453
I3693
sS'terrorism'
p1454
I5721
sS'pires'
p1455
I4420
sS'ball'
p1456
I717
sS'columbia'
p1457
I1371
sS'upon'
p1458
I5982
sS'nationally'
p1459
I3999
sS'sybille'
p1460
I5629
sS'kabeu'
p1461
I3176
sS'afghan'
p1462
I344
sS'identity'
p1463
I2851
sS'off'
p1464
I4156
sS'sikua'
p1465
I5298
sS'indonesia'
p1466
I2923
sS'southeastern'
p1467
I5405
sS'command'
p1468
I1382
sS'vickie'
p1469
I6045
sS'samir'
p1470
I5073
sS'years'
p1471
I6304
sS'paul'
p1472
I4334
sS'loew'
p1473
I3508
sS'web'
p1474
I6155
sS'clergyman'
p1475
I1327
sS'transparent'
p1476
I5861
sS'arrest'
p1477
I576
sS'crack'
p1478
I1540
sS'increased'
p1479
I2903
sS'government'
p1480
I2494
sS'chancellor'
p1481
I1195
sS'february'
p1482
I2183
sS'increases'
p1483
I2904
sS'zimbabwe'
p1484
I6347
sS'five'
p1485
I2249
sS'belgium'
p1486
I796
sS'crist'
p1487
I1557
sS'crisp'
p1488
I1556
sS'finnish'
p1489
I2235
sS'chairs'
p1490
I1185
sS'become'
p1491
I777
sS'replacement'
p1492
I4853
sS'gaining'
p1493
I2375
sS'rotondo'
p1494
I5008
sS'memorial'
p1495
I3747
sS'daylight'
p1496
I1631
sS'championship'
p1497
I1191
sS'choosing'
p1498
I1256
sS'karbala'
p1499
I3196
sS'transport'
p1500
I5863
sS'shoni'
p1501
I5259
sS'avoid'
p1502
I677
sS'demonstrators'
p1503
I1708
sS'does'
p1504
I1835
sS'jordanians'
p1505
I3140
sS'araripina'
p1506
I540
sS'deciding'
p1507
I1655
sS'belan'
p1508
I791
sS'pressure'
p1509
I4560
sS'chadds'
p1510
I1180
sS'includes'
p1511
I2901
sS'homemaker'
p1512
I2757
sS'stage'
p1513
I5458
sS'sister'
p1514
I5321
sS'grayer'
p1515
I2524
sS'angeles'
p1516
I486
sS'union'
p1517
I5964
sS'insufficient'
p1518
I2960
sS'burma'
p1519
I1033
sS'alliance'
p1520
I425
sS'booed'
p1521
I925
sS'novodevichy'
p1522
I4113
sS'lung'
p1523
I3558
sS'donda'
p1524
I1850
sS'roads'
p1525
I4963
sS'reedville'
p1526
I4800
sS'spots'
p1527
I5440
sS'hirschman'
p1528
I2727
sS'fiscal'
p1529
I2244
sS'cosmopolitan'
p1530
I1512
sS'tina'
p1531
I5794
sS'xinhua'
p1532
I6289
sS'candidacy'
p1533
I1097
sS'davos'
p1534
I1628
sS'places'
p1535
I4428
sS'society'
p1536
I5366
sS'sollecito'
p1537
I5375
sS'official'
p1538
I4163
sS'smooth'
p1539
I5354
sS'kathleen'
p1540
I3204
sS'placed'
p1541
I4427
sS'qantas'
p1542
I4678
sS'nuri'
p1543
I4125
sS'floridian'
p1544
I2267
sS'bearing'
p1545
I770
sS'irish'
p1546
I3010
sS'recognize'
p1547
I4785
sS'kingston'
p1548
I3256
sS'weston'
p1549
I6180
sS'inn'
p1550
I2944
sS'ind'
p1551
I2907
sS'inc'
p1552
I2896
sS'magdalenas'
p1553
I3590
sS'variety'
p1554
I6017
sS'deadly'
p1555
I1637
sS'sharif'
p1556
I5232
sS'stockpile'
p1557
I5512
sS'francisco'
p1558
I2319
sS'monday'
p1559
I3864
sS'yekaterina'
p1560
I6306
sS'oppression'
p1561
I4208
sS'chance'
p1562
I1194
sS'exposure'
p1563
I2104
sS'mozart'
p1564
I3923
sS'rural'
p1565
I5030
sS'rep'
p1566
I4849
sS'riccardo'
p1567
I4924
sS'khalid'
p1568
I3232
sS'controversial'
p1569
I1489
sS'commandos'
p1570
I1386
sS'oldest'
p1571
I4173
sS'integrity'
p1572
I2964
sS'votes'
p1573
I6099
sS'voter'
p1574
I6097
sS'edward'
p1575
I1932
sS'voted'
p1576
I6096
sS'littlehampton'
p1577
I3485
sS'wreath'
p1578
I6271
sS'roadblock'
p1579
I4962
sS'fogg'
p1580
I2272
sS'delegate'
p1581
I1688
sS'falwell'
p1582
I2149
sS'1940s'
p1583
I88
sS'lustiger'
p1584
I3563
sS'jamaica'
p1585
I3060
sS'preacher'
p1586
I4541
sS'pande'
p1587
I4291
sS'phoned'
p1588
I4394
sS'established'
p1589
I2045
sS'above'
p1590
I276
sS'churches'
p1591
I1278
sS'radegund'
p1592
I4711
sS'told'
p1593
I5810
sS'richest'
p1594
I4931
sS'bangkok'
p1595
I726
sS'protection'
p1596
I4637
sS'giroux'
p1597
I2449
sS'catastrophe'
p1598
I1151
sS'studs'
p1599
I5556
sS'daughter'
p1600
I1623
sS'study'
p1601
I5557
sS'envoy'
p1602
I2024
sS'stressed'
p1603
I5540
sS'cohn'
p1604
I1355
sS'highly'
p1605
I2715
sS'archaeological'
p1606
I542
sS'mamaroneck'
p1607
I3620
sS'jinping'
p1608
I3118
sS'palestinian'
p1609
I4284
sS'indians'
p1610
I2915
sS'indiana'
p1611
I2913
sS'giovanni'
p1612
I2446
sS'award'
p1613
I681
sS'championships'
p1614
I1192
sS'emeritus'
p1615
I1975
sS'brugge'
p1616
I1005
sS'dundy'
p1617
I1894
sS'1991'
p1618
I133
sS'1990'
p1619
I132
sS'1993'
p1620
I135
sS'1992'
p1621
I134
sS'1995'
p1622
I137
sS'1994'
p1623
I136
sS'1997'
p1624
I139
sS'1996'
p1625
I138
sS'1999'
p1626
I141
sS'1998'
p1627
I140
sS'work'
p1628
I6256
sS'theories'
p1629
I5749
sS'era'
p1630
I2030
sS'gloria'
p1631
I2459
sS'indicated'
p1632
I2916
sS'cited'
p1633
I1289
sS'india'
p1634
I2911
sS'antislavery'
p1635
I511
sS'walsh'
p1636
I6114
sS'madonna'
p1637
I3584
sS'provide'
p1638
I4645
sS'papadopoulos'
p1639
I4294
sS'interview'
p1640
I2984
sS'beach'
p1641
I767
sS'lai'
p1642
I3337
sS'after'
p1643
I348
sS'hong'
p1644
I2762
sS'lab'
p1645
I3330
sS'customs'
p1646
I1585
sS'lay'
p1647
I3384
sS'herzl'
p1648
I2703
sS'law'
p1649
I3375
sS'meaningful'
p1650
I3711
sS'nowitzki'
p1651
I4116
sS'padre'
p1652
I4269
sS'greet'
p1653
I2534
sS'greek'
p1654
I2529
sS'green'
p1655
I2530
sS'rivka'
p1656
I4959
sS'order'
p1657
I4212
sS'triggering'
p1658
I5877
sS'lindsay'
p1659
I3468
sS'infested'
p1660
I2928
sS'office'
p1661
I4159
sS'distractingly'
p1662
I1813
sS'innovative'
p1663
I2946
sS'jaba'
p1664
I3046
sS'japan'
p1665
I3072
sS'derided'
p1666
I1724
sS'mayor'
p1667
I3701
sS'bombing'
p1668
I918
sS'iaea'
p1669
I2843
sS'denver'
p1670
I1714
sS'damages'
p1671
I1604
sS'theo'
p1672
I5746
sS'then'
p1673
I5745
sS'them'
p1674
I5742
sS'trail'
p1675
I5852
sS'expressionist'
p1676
I2105
sS'break'
p1677
I968
sS'emigrated'
p1678
I1977
sS'furman'
p1679
I2365
sS'they'
p1680
I5756
sS'riesch'
p1681
I4938
sS'strategic'
p1682
I5530
sS'bank'
p1683
I729
sS'rocky'
p1684
I4980
sS'slavery'
p1685
I5339
sS'rocks'
p1686
I4978
sS'carlos'
p1687
I1129
sS'lifted'
p1688
I3451
sS'crimes'
p1689
I1553
sS'nigerian'
p1690
I4062
sS'network'
p1691
I4038
sS'cameras'
p1692
I1081
sS'wasilla'
p1693
I6134
sS'daniel'
p1694
I1614
sS'medicine'
p1695
I3724
sS'hogan'
p1696
I2741
sS'mughniyeh'
p1697
I3938
sS'disputed'
p1698
I1808
sS'veto'
p1699
I6041
sS'gavriel'
p1700
I2407
sS'mourning'
p1701
I3913
sS'seceded'
p1702
I5149
sS'delves'
p1703
I1696
sS'created'
p1704
I1545
sS'chirac'
p1705
I1251
sS'creates'
p1706
I1546
sS'organize'
p1707
I4219
sS'kim'
p1708
I3251
sS'another'
p1709
I505
sS'uruguayan'
p1710
I5993
sS'antarctic'
p1711
I507
sS'mervyn'
p1712
I3762
sS'ingmar'
p1713
I2936
sS'timothy'
p1714
I5793
sS'trenton'
p1715
I5872
sS'protracted'
p1716
I4642
sS'john'
p1717
I3129
sS'dogs'
p1718
I1836
sS'alonso'
p1719
I438
sS'albert'
p1720
I397
sS'rejected'
p1721
I4823
sS'honolulu'
p1722
I2763
sS'toronto'
p1723
I5824
sS'evansville'
p1724
I2065
sS'target'
p1725
I5669
sS'heightstown'
p1726
I2673
sS'medley'
p1727
I3726
sS'iron'
p1728
I3011
sS'sorrento'
p1729
I5394
sS'portraits'
p1730
I4503
sS'praising'
p1731
I4534
sS'strength'
p1732
I5537
sS'genuine'
p1733
I2423
sS'garavani'
p1734
I2388
sS'mourino'
p1735
I3912
sS'forces'
p1736
I2288
sS'curfew'
p1737
I1581
sS'involving'
p1738
I2998
sS'germany'
p1739
I2432
sS'grave'
p1740
I2520
sS'aung'
p1741
I660
sS'radford'
p1742
I4713
sS'sun'
p1743
I5588
sS'voting'
p1744
I6100
sS'responded'
p1745
I4887
sS'anniversary'
p1746
I500
sS'capitol'
p1747
I1105
sS'yeo'
p1748
I6310
sS'kurzem'
p1749
I3317
sS'pursuing'
p1750
I4668
sS'predecessor'
p1751
I4542
sS'do'
p1752
I1828
sS"'mini'"
p1753
I5
sS'dj'
p1754
I1820
sS'de'
p1755
I1634
sS'roberta'
p1756
I4966
sS'du'
p1757
I1885
sS'dr'
p1758
I1866
sS'runs'
p1759
I5029
sS'suffrage'
p1760
I5580
sS'lexington'
p1761
I3437
sS'secretary'
p1762
I5153
sS'mustafa'
p1763
I3964
sS'sylvain'
p1764
I5631
sS'hosseini'
p1765
I2783
sS'abdelrahman'
p1766
I259
sS'discussions'
p1767
I1801
sS'habyarimana'
p1768
I2580
sS'away'
p1769
I682
sS'unable'
p1770
I5947
sS'cooperation'
p1771
I1498
sS'nyanga'
p1772
I4129
sS'deputies'
p1773
I1721
sS'carruth'
p1774
I1137
sS'shields'
p1775
I5249
sS'francescoli'
p1776
I2317
sS'we'
p1777
I6148
sS'wo'
p1778
I6239
sS'falmouth'
p1779
I2146
sS'handful'
p1780
I2600
sS'theresa'
p1781
I5754
sS'huang'
p1782
I2809
sS'caledonia'
p1783
I1068
sS'abolished'
p1784
I272
sS'received'
p1785
I4780
sS'ill'
p1786
I2863
sS'strummer'
p1787
I5549
sS'receiver'
p1788
I4781
sS'vitter'
p1789
I6082
sS'com'
p1790
I1373
sS'col'
p1791
I1357
sS'con'
p1792
I1421
sS'peacefully'
p1793
I4339
sS'tough'
p1794
I5828
sS'thierry'
p1795
I5757
sS'nonconformist'
p1796
I4081
sS'nessel'
p1797
I4034
sS'tony'
p1798
I5815
sS'speak'
p1799
I5416
sS'strong'
p1800
I5544
sS'dozens'
p1801
I1864
sS'families'
p1802
I2153
sS'attacked'
p1803
I636
sS'concerning'
p1804
I1426
sS'gracious'
p1805
I2501
sS'physician'
p1806
I4401
sS'johansson'
p1807
I3128
sS'east'
p1808
I1915
sS'chabad'
p1809
I1179
sS'air'
p1810
I383
sS'ain'
p1811
I382
sS'charleroi'
p1812
I1211
sS'aid'
p1813
I377
sS'property'
p1814
I4627
sS'launched'
p1815
I3369
sS'uganda'
p1816
I5937
sS'exile'
p1817
I2088
sS'conn'
p1818
I1451
sS'wooing'
p1819
I6250
sS'confirmed'
p1820
I1439
sS'descent'
p1821
I1726
sS'jerry'
p1822
I3095
sS'monarch'
p1823
I3863
sS'hierarchies'
p1824
I2711
sS'indictment'
p1825
I2917
sS'olympique'
p1826
I4184
sS'independent'
p1827
I2910
sS'saddam'
p1828
I5052
sS'hang'
p1829
I2607
sS'rain'
p1830
I4724
sS'wexler'
p1831
I6183
sS'liberties'
p1832
I3444
sS'peshev'
p1833
I4377
sS'blamed'
p1834
I879
sS'dhaka'
p1835
I1759
sS'kept'
p1836
I3224
sS'episodic'
p1837
I2027
sS'1977'
p1838
I121
sS'1974'
p1839
I120
sS'1973'
p1840
I119
sS'1972'
p1841
I118
sS'1970'
p1842
I117
sS'epo'
p1843
I2028
sS'client'
p1844
I1332
sS'monaco'
p1845
I3862
sS'the'
p1846
I5738
sS'camps'
p1847
I1089
sS'musical'
p1848
I3959
sS'anshan'
p1849
I506
sS'traditions'
p1850
I5847
sS'quoted'
p1851
I4700
sS'photo'
p1852
I4396
sS'edmonton'
p1853
I1928
sS'wasps'
p1854
I6135
sS'kalt'
p1855
I3185
sS'ngoni'
p1856
I4052
sS'mohamed'
p1857
I3855
sS'jose'
p1858
I3143
sS'croxteth'
p1859
I1571
sS'cornell'
p1860
I1504
sS'photographer'
p1861
I4397
sS'help'
p1862
I2682
sS'evanston'
p1863
I2064
sS'wright'
p1864
I6273
sS'spread'
p1865
I5441
sS'board'
p1866
I898
sS'hilla'
p1867
I2717
sS'righteous'
p1868
I4943
sS'plasma'
p1869
I4438
sS'expelled'
p1870
I2094
sS'silvino'
p1871
I5302
sS'capt'
p1872
I1106
sS'alther'
p1873
I443
sS'arac'
p1874
I536
sS'boxes'
p1875
I950
sS'brunner'
p1876
I1008
sS'korean'
p1877
I3293
sS'audiotape'
p1878
I654
sS'insurgent'
p1879
I2962
sS'securities'
p1880
I5157
sS'gandhi'
p1881
I2383
sS'night'
p1882
I4063
sS'security'
p1883
I5158
sS'honored'
p1884
I2765
sS'1908'
p1885
I55
sS'korea'
p1886
I3292
sS'born'
p1887
I936
sS'productions'
p1888
I4601
sS'bore'
p1889
I934
sS'humor'
p1890
I2821
sS'lubavitch'
p1891
I3546
sS'comments'
p1892
I1390
sS'ossetia'
p1893
I4232
sS'asking'
p1894
I605
sS'denied'
p1895
I1710
sS'columbus'
p1896
I1372
sS'defend'
p1897
I1672
sS'confer'
p1898
I1435
sS'provocations'
p1899
I4649
sS'architectural'
p1900
I545
sS'graduated'
p1901
I2504
sS'post'
p1902
I4514
sS'trophy'
p1903
I5888
sS'chafa'
p1904
I1181
sS'newspapers'
p1905
I4047
sS'months'
p1906
I3877
sS'visa'
p1907
I6074
sS'yining'
p1908
I6316
sS'jacques'
p1909
I3053
sS'prisoners'
p1910
I4584
sS'bound'
p1911
I944
sS'karlsson'
p1912
I3198
sS'ullah'
p1913
I5940
sS'tjian'
p1914
I5803
sS'available'
p1915
I674
sS'fight'
p1916
I2210
sS'way'
p1917
I6146
sS'was'
p1918
I6131
sS'war'
p1919
I6121
sS'snowy'
p1920
I5359
sS'becoming'
p1921
I778
sS'ceded'
p1922
I1162
sS'reves'
p1923
I4911
sS'true'
p1924
I5894
sS'brunswick'
p1925
I1009
sS'plymouth'
p1926
I4455
sS'culpan'
p1927
I1575
sS'veterinarian'
p1928
I6040
sS'devidas'
p1929
I1753
sS'vatican'
p1930
I6024
sS'emotional'
p1931
I1983
sS'emir'
p1932
I1980
sS'promises'
p1933
I4616
sS'frederick'
p1934
I2332
sS'evidence'
p1935
I2076
sS'promised'
p1936
I4615
sS'prayer'
p1937
I4538
sS'physical'
p1938
I4400
sS'shrine'
p1939
I5279
sS'jong'
p1940
I3138
sS'rwandan'
p1941
I5042
sS'test'
p1942
I5723
sS'scored'
p1943
I5126
sS'brothers'
p1944
I998
sS'welcome'
p1945
I6165
sS'walton'
p1946
I6116
sS'wernbloom'
p1947
I6175
sS'ramsi'
p1948
I4736
sS'governed'
p1949
I2493
sS'loyal'
p1950
I3542
sS'classmate'
p1951
I1319
sS'switched'
p1952
I5624
sS'dance'
p1953
I1608
sS'global'
p1954
I2458
sS'amendola'
p1955
I453
sS'battle'
p1956
I761
sS'devoted'
p1957
I1757
sS'heller'
p1958
I2680
sS'killings'
p1959
I3247
sS'zone'
p1960
I6350
sS'rhythm'
p1961
I4920
sS'division'
p1962
I1817
sS'zhang'
p1963
I6344
sS'cordovez'
p1964
I1503
sS'blast'
p1965
I882
sS'aggressively'
p1966
I361
sS'presented'
p1967
I4552
sS'turns'
p1968
I5920
sS'guo'
p1969
I2570
sS'gun'
p1970
I2566
sS'gul'
p1971
I2565
sS'p'
p1972
I4263
sS'guy'
p1973
I2574
sS'upper'
p1974
I5983
sS'revolution'
p1975
I4915
sS'detonated'
p1976
I1746
sS'cost'
p1977
I1514
sS'cargo'
p1978
I1124
sS'havoc'
p1979
I2643
sS'wolff'
p1980
I6242
sS'shared'
p1981
I5231
sS'appeal'
p1982
I523
sS'nasri'
p1983
I3992
sS'supporting'
p1984
I5595
sS'explosion'
p1985
I2099
sS'juvenal'
p1986
I3173
sS'muslim'
p1987
I3961
sS'combatant'
p1988
I1375
sS'appears'
p1989
I528
sS'poulter'
p1990
I4521
sS'trial'
p1991
I5873
sS'franklin'
p1992
I2324
sS'usually'
p1993
I6001
sS'montreal'
p1994
I3878
sS'churchill'
p1995
I1279
sS'retired'
p1996
I4898
sS'retiree'
p1997
I4899
sS'extra'
p1998
I2111
sS'marked'
p1999
I3658
sS'markey'
p2000
I3659
sS'fbi'
p2001
I2174
sS'terminal'
p2002
I5716
sS'torberg'
p2003
I5822
sS'prove'
p2004
I4644
sS'super'
p2005
I5592
sS'angela'
p2006
I485
sS'gautam'
p2007
I2405
sS'territories'
p2008
I5719
sS'live'
p2009
I3489
sS'bombings'
p2010
I919
sS'angels'
p2011
I487
sS'entrance'
p2012
I2019
sS'club'
p2013
I1342
sS'envelope'
p2014
I2022
sS'organizations'
p2015
I4218
sS'car'
p2016
I1114
sS'dmitri'
p2017
I1824
sS'purge'
p2018
I4666
sS'fock'
p2019
I2270
sS'can'
p2020
I1090
sS'dmitry'
p2021
I1825
sS'pretoria'
p2022
I4563
sS'photographs'
p2023
I4399
sS'dedicated'
p2024
I1664
sS'december'
p2025
I1653
sS'1980s'
p2026
I124
sS'heard'
p2027
I2660
sS'o'
p2028
I4132
sS'domenici'
p2029
I1841
sS'dialysis'
p2030
I1762
sS'armies'
p2031
I565
sS'southern'
p2032
I5406
sS'bondy'
p2033
I921
sS'produce'
p2034
I4597
sS'islands'
p2035
I3021
sS'nomination'
p2036
I4079
sS'leesburg'
p2037
I3406
sS'remember'
p2038
I4840
sS'grandson'
p2039
I2512
sS'mucsinyi'
p2040
I3933
sS'kurt'
p2041
I3316
sS'serving'
p2042
I5206
sS'displayed'
p2043
I1807
sS'kirchner'
p2044
I3261
sS'brain'
p2045
I959
sS'cold'
p2046
I1358
sS'still'
p2047
I5507
sS'ethic'
p2048
I2051
sS'1835'
p2049
I40
sS'window'
p2050
I6221
sS'norway'
p2051
I4095
sS'halt'
p2052
I2592
sS'1955'
p2053
I104
sS'1954'
p2054
I103
sS'1957'
p2055
I106
sS'1956'
p2056
I105
sS'1951'
p2057
I100
sS'1950'
p2058
I98
sS'1953'
p2059
I102
sS'half'
p2060
I2590
sS'not'
p2061
I4097
sS'nov'
p2062
I4105
sS'now'
p2063
I4115
sS"moses'"
p2064
I3894
sS'1958'
p2065
I107
sS'servant'
p2066
I5202
sS'january'
p2067
I3071
sS'kerr'
p2068
I3225
sS'stockholm'
p2069
I5511
sS'denmark'
p2070
I1712
sS'el'
p2071
I1947
sS'en'
p2072
I1987
sS'fired'
p2073
I2238
sS'challenged'
p2074
I1189
sS'cairo'
p2075
I1064
sS'replay'
p2076
I4856
sS'ex'
p2077
I2079
sS'year'
p2078
I6303
sS'eu'
p2079
I2055
sS'teams'
p2080
I5689
sS'chinin'
p2081
I1249
sS'antiwar'
p2082
I512
sS'looking'
p2083
I3519
sS'opener'
p2084
I4196
sS'shows'
p2085
I5278
sS'cars'
p2086
I1139
sS'suleiman'
p2087
I5584
sS'barak'
p2088
I736
sS'advantages'
p2089
I336
sS'rebel'
p2090
I4774
sS'carl'
p2091
I1126
sS'marine'
p2092
I3656
sS'care'
p2093
I1118
sS'tiptonville'
p2094
I5796
sS'british'
p2095
I989
sS'nonprofit'
p2096
I4083
sS'ginsberg'
p2097
I2444
sS'mello'
p2098
I3737
sS'blind'
p2099
I884
sS'romania'
p2100
I4991
sS'xi'
p2101
I6285
sS'toulouse'
p2102
I5830
sS'stevens'
p2103
I5505
sS'poitrenaud'
p2104
I4468
sS'directly'
p2105
I1788
sS'message'
p2106
I3764
sS'drove'
p2107
I1882
sS'sheed'
p2108
I5240
sS'beaconsfield'
p2109
I768
sS'friend'
p2110
I2346
sS'perino'
p2111
I4362
sS'mostly'
p2112
I3898
sS'that'
p2113
I5734
sS'pittsburgh'
p2114
I4423
sS'taxation'
p2115
I5683
sS'dissolving'
p2116
I1811
sS'prometheus'
p2117
I4612
sS'quan'
p2118
I4685
sS'soren'
p2119
I5392
sS'tuttle'
p2120
I5921
sS'tehran'
p2121
I5695
sS'than'
p2122
I5731
sS'greenwood'
p2123
I2533
sS'television'
p2124
I5698
sS'earthlink'
p2125
I1912
sS'angel'
p2126
I484
sS'remained'
p2127
I4833
sS'craig'
p2128
I1543
sS'slam'
p2129
I5335
sS'anger'
p2130
I488
sS'hsieh'
p2131
I2803
sS'hsien'
p2132
I2804
sS'tetley'
p2133
I5726
sS'online'
p2134
I4191
sS'santiago'
p2135
I5082
sS'kyung'
p2136
I3324
sS'successive'
p2137
I5574
sS'america'
p2138
I454
sS'cheema'
p2139
I1222
sS'extradite'
p2140
I2112
sS'steady'
p2141
I5489
sS'mrs'
p2142
I3927
sS'slaves'
p2143
I5340
sS'professional'
p2144
I4602
sS'ferrara'
p2145
I2195
sS'german'
p2146
I2431
sS'maine'
p2147
I3600
sS'fifth'
p2148
I2209
sS'ground'
p2149
I2545
sS'adolf'
p2150
I327
sS'fumio'
p2151
I2358
sS'analyst'
p2152
I468
sS'only'
p2153
I4192
sS'developed'
p2154
I1751
sS'first'
p2155
I2243
sS'elysee'
p2156
I1969
sS'samuel'
p2157
I5074
sS'baghdad'
p2158
I711
sS'granholm'
p2159
I2513
sS'krizia'
p2160
I3306
sS'husband'
p2161
I2833
sS'guede'
p2162
I2560
sS'burst'
p2163
I1039
sS'incarcerated'
p2164
I2897
sS'fanned'
p2165
I2158
sS'elected'
p2166
I1953
sS'actively'
p2167
I307
sS'concern'
p2168
I1425
sS'israeli'
p2169
I3024
sS'fascinated'
p2170
I2165
sS'3'
p2171
I175
sS'between'
p2172
I838
sS'islam'
p2173
I3017
sS'notice'
p2174
I4100
sS'gygax'
p2175
I2576
sS'garde'
p2176
I2391
sS'hajj'
p2177
I2588
sS'blame'
p2178
I878
sS'armenian'
p2179
I562
sS'article'
p2180
I587
sS'javier'
p2181
I3079
sS'mont'
p2182
I3874
sS'bahraini'
p2183
I714
sS'comes'
p2184
I1379
sS'nearby'
p2185
I4017
sS'exploit'
p2186
I2098
sS'looms'
p2187
I3521
sS'pontrhydyfen'
p2188
I4488
sS'learning'
p2189
I3398
sS'moreover'
p2190
I3884
sS'brats'
p2191
I965
sS'oliver'
p2192
I4177
sS'cycling'
p2193
I1587
sS'carey'
p2194
I1123
sS'cared'
p2195
I1119
sS'dictator'
p2196
I1767
sS'odessa'
p2197
I4153
sS'shortages'
p2198
I5266
sS'govortsova'
p2199
I2498
sS'observers'
p2200
I4140
sS'external'
p2201
I2109
sS'suspected'
p2202
I5610
sS'uehara'
p2203
I5936
sS'these'
p2204
I5755
sS'wealthiest'
p2205
I6150
sS'rembrandt'
p2206
I4839
sS'soil'
p2207
I5370
sS'commander'
p2208
I1384
sS'canceled'
p2209
I1095
sS'heels'
p2210
I2667
sS'commanded'
p2211
I1383
sS'conquerer'
p2212
I1457
sS'develop'
p2213
I1750
sS'media'
p2214
I3722
sS'figuring'
p2215
I2217
sS'followers'
p2216
I2279
sS'negotiations'
p2217
I4025
sS'ashtabula'
p2218
I599
sS'xiaoyan'
p2219
I6287
sS'noble'
p2220
I4077
sS'investigated'
p2221
I2994
sS'lakoff'
p2222
I3342
sS'kostunica'
p2223
I3299
sS'deficiency'
p2224
I1677
sS'tradition'
p2225
I5845
sS'complained'
p2226
I1413
sS'charges'
p2227
I1208
sS'constitutional'
p2228
I1473
sS'severe'
p2229
I5217
sS'gain'
p2230
I2373
sS'charged'
p2231
I1207
sS'battleship'
p2232
I762
sS'sweeping'
p2233
I5620
sS'melton'
p2234
I3740
sS'conservatoire'
p2235
I1462
sS'renewed'
p2236
I4846
sS'improvement'
p2237
I2893
sS'volubility'
p2238
I6091
sS'role'
p2239
I4987
sS'struck'
p2240
I5547
sS'phelps'
p2241
I4383
sS'rules'
p2242
I5023
sS'amy'
p2243
I465
sS'symbolism'
p2244
I5633
sS'galvin'
p2245
I2377
sS'execution'
p2246
I2084
sS'lady'
p2247
I3333
sS'rear'
p2248
I4770
sS'ruled'
p2249
I5021
sS'heightened'
p2250
I2671
sS'collective'
p2251
I1363
sS'miracle'
p2252
I3819
sS't'
p2253
I5640
sS'output'
p2254
I4247
sS'apartments'
p2255
I521
sS'abidjan'
p2256
I269
sS'1858'
p2257
I42
sS'repubblica'
p2258
I4866
sS'regina'
p2259
I4812
sS'1850'
p2260
I41
sS'uygur'
p2261
I6006
sS'conservative'
p2262
I1460
sS'reverberating'
p2263
I4909
sS'guillaume'
p2264
I2563
sS'assembly'
p2265
I615
sS'business'
p2266
I1044
sS'sixth'
p2267
I5327
sS'strained'
p2268
I5526
sS'1933'
p2269
I80
sS'1932'
p2270
I79
sS'1931'
p2271
I78
sS'1937'
p2272
I84
sS'1936'
p2273
I83
sS'1935'
p2274
I82
sS'1934'
p2275
I81
sS'assemble'
p2276
I614
sS'1939'
p2277
I86
sS'1938'
p2278
I85
sS'fondness'
p2279
I2282
sS'rodham'
p2280
I4984
sS'central'
p2281
I1173
sS'ideology'
p2282
I2852
sS'journey'
p2283
I3149
sS'macapagal'
p2284
I3577
sS'testimony'
p2285
I5724
sS'ifk'
p2286
I2855
sS'cheikh'
p2287
I1224
sS'protests'
p2288
I4641
sS'elementary'
p2289
I1958
sS'your'
p2290
I6327
sS'thanou'
p2291
I5733
sS'prepare'
p2292
I4546
sS'area'
p2293
I549
sS'qualifying'
p2294
I4684
sS'stark'
p2295
I5472
sS'los'
p2296
I3527
sS'poured'
p2297
I4523
sS'catt'
p2298
I1154
sS'low'
p2299
I3539
sS'lot'
p2300
I3532
sS'lou'
p2301
I3533
sS'burnings'
p2302
I1035
sS'assumes'
p2303
I623
sS'jones'
p2304
I3137
sS'prokop'
p2305
I4609
sS'delayed'
p2306
I1687
sS'illustrator'
p2307
I2868
sS'stanford'
p2308
I5468
sS'sadness'
p2309
I5054
sS'miguel'
p2310
I3787
sS'toner'
p2311
I5813
sS'kostas'
p2312
I3298
sS'600'
p2313
I217
sS'describe'
p2314
I1727
sS'moved'
p2315
I3916
sS'moves'
p2316
I3919
sS'unwelcome'
p2317
I5980
sS'credibility'
p2318
I1550
sS'eduardo'
p2319
I1929
sS'katmandu'
p2320
I3206
sS'you'
p2321
I6321
sS'forcing'
p2322
I2289
sS'poor'
p2323
I4492
sS'60s'
p2324
I218
sS'volkswagens'
p2325
I6090
sS'wields'
p2326
I6205
sS'massachusetts'
p2327
I3680
sS'pelosi'
p2328
I4344
sS'pool'
p2329
I4490
sS'building'
p2330
I1022
sS'cordero'
p2331
I1502
sS'doubted'
p2332
I1855
sS'bolton'
p2333
I915
sS'surrounded'
p2334
I5604
sS'peacock'
p2335
I4340
sS'month'
p2336
I3876
sS'deadline'
p2337
I1636
sS'viability'
p2338
I6042
sS'cameron'
p2339
I1082
sS'religious'
p2340
I4830
sS'correa'
p2341
I1507
sS'griffin'
p2342
I2538
sS'shabtai'
p2343
I5221
sS'auckland'
p2344
I652
sS'pledged'
p2345
I4449
sS'1930s'
p2346
I77
sS'clerics'
p2347
I1328
sS'homer'
p2348
I2758
sS'homes'
p2349
I2759
sS'very'
p2350
I6039
sS'horror'
p2351
I2776
sS'frederic'
p2352
I2331
sS'vermeer'
p2353
I6035
sS'mps'
p2354
I3925
sS'louis'
p2355
I3535
sS'mild'
p2356
I3792
sS'mile'
p2357
I3793
sS'brasilia'
p2358
I964
sS'streets'
p2359
I5536
sS'conscience'
p2360
I1458
sS'witnessed'
p2361
I6238
sS'emotions'
p2362
I1984
sS'learned'
p2363
I3397
sS'deborah'
p2364
I1647
sS'raton'
p2365
I4750
sS'iran'
p2366
I3002
sS'venice'
p2367
I6031
sS'manicured'
p2368
I3629
sS'tracks'
p2369
I5842
sS'lockerbie'
p2370
I3505
sS'iraq'
p2371
I3004
sS'samak'
p2372
I5070
sS'colored'
p2373
I1369
sS'ahead'
p2374
I371
sS'inspired'
p2375
I2954
sS'losses'
p2376
I3530
sS'popes'
p2377
I4493
sS'culpepper'
p2378
I1576
sS'successors'
p2379
I5576
sS'family'
p2380
I2154
sS'thatcher'
p2381
I5735
sS'aziz'
p2382
I691
sS'lagos'
p2383
I3334
sS'aimed'
p2384
I380
sS'trained'
p2385
I5855
sS'khan'
p2386
I3234
sS'takes'
p2387
I5653
sS'saxony'
p2388
I5098
sS'iraqi'
p2389
I3005
sS'chaotic'
p2390
I1202
sS'taken'
p2391
I5652
sS'boilly'
p2392
I909
sS'injury'
p2393
I2942
sS'kurdistan'
p2394
I3315
sS'surprisingly'
p2395
I5601
sS'broke'
p2396
I991
sS'schillaci'
p2397
I5108
sS'hurry'
p2398
I2831
sS'alderman'
p2399
I403
sS'helped'
p2400
I2683
sS'karnack'
p2401
I3199
sS'nina'
p2402
I4066
sS'nebraska'
p2403
I4020
sS'nine'
p2404
I4067
sS'yemen'
p2405
I6308
sS'history'
p2406
I2732
sS'fundamentalist'
p2407
I2360
sS'boycott'
p2408
I953
sS'arabia'
p2409
I535
sS'finneran'
p2410
I2234
sS'smitty'
p2411
I5353
sS'rockwellian'
p2412
I4979
sS'stayed'
p2413
I5488
sS'individualistic'
p2414
I2922
sS'siniora'
p2415
I5318
sS'idaho'
p2416
I2849
sS'tried'
p2417
I5876
sS'mofaz'
p2418
I3853
sS'terrorist'
p2419
I5722
sS'invasion'
p2420
I2990
sS'rudy'
p2421
I5018
sS'a'
p2422
I251
sS'criticize'
p2423
I1562
sS'banks'
p2424
I730
sS'dream'
p2425
I1871
sS'eron'
p2426
I2036
sS'imanol'
p2427
I2872
sS'casablanca'
p2428
I1142
sS'soon'
p2429
I5389
sS'auburn'
p2430
I651
sS'held'
p2431
I2675
sS'committee'
p2432
I1397
sS'committed'
p2433
I1396
sS'hell'
p2434
I2679
sS'patarkatsishvili'
p2435
I4323
sS'teeming'
p2436
I5693
sS'dino'
p2437
I1781
sS'territorial'
p2438
I5718
sS'pongsudhirak'
p2439
I4486
sS'mahatma'
p2440
I3594
sS'ntaba'
p2441
I4118
sS'yi'
p2442
I6314
sS'evening'
p2443
I2068
sS'food'
p2444
I2283
sS'cem'
p2445
I1170
sS'ye'
p2446
I6302
sS'ananiashvili'
p2447
I471
sS'tsinghua'
p2448
I5901
sS'hyams'
p2449
I2837
sS'foot'
p2450
I2284
sS'traveled'
p2451
I5866
sS'yu'
p2452
I6331
sS'bryan'
p2453
I1011
sS'imprisoned'
p2454
I2890
sS'irgun'
p2455
I3009
sS'fully'
p2456
I2356
sS'intervene'
p2457
I2982
sS'stopped'
p2458
I5519
sS'fairy'
p2459
I2138
sS'referred'
p2460
I4804
sS'heavy'
p2461
I2666
sS'injured'
p2462
I2941
sS'neil'
p2463
I4028
sS'colombia'
p2464
I1367
sS'bammer'
p2465
I721
sS'blank'
p2466
I880
sS'haley'
p2467
I2589
sS'event'
p2468
I2069
sS'robert'
p2469
I4965
sS'since'
p2470
I5313
sS'douglas'
p2471
I1856
sS'eisenach'
p2472
I1945
sS'7'
p2473
I225
sS'issue'
p2474
I3026
sS'housed'
p2475
I2794
sS'azim'
p2476
I690
sS'houses'
p2477
I2797
sS'reason'
p2478
I4772
sS'base'
p2479
I751
sS'brightest'
p2480
I983
sS'dirk'
p2481
I1791
sS'ilham'
p2482
I2862
sS'revolutionary'
p2483
I4916
sS'govou'
p2484
I2499
sS'polanco'
p2485
I4469
sS'sheikh'
p2486
I5242
sS'cheering'
p2487
I1223
sS'american'
p2488
I455
sS'kung'
p2489
I3311
sS'kolosoy'
p2490
I3287
sS'syria'
p2491
I5636
sS'xiang'
p2492
I6286
sS'danzig'
p2493
I1617
sS'fischer'
p2494
I2246
sS'knocking'
p2495
I3275
sS'arsenal'
p2496
I583
sS'miss'
p2497
I3824
sS'horse'
p2498
I2777
sS'pinned'
p2499
I4415
sS'station'
p2500
I5484
sS'nigeria'
p2501
I4061
sS'1919'
p2502
I66
sS'1918'
p2503
I65
sS'jordan'
p2504
I3139
sS'1911'
p2505
I58
sS'1910'
p2506
I57
sS'1913'
p2507
I60
sS'1912'
p2508
I59
sS'1915'
p2509
I62
sS'1914'
p2510
I61
sS'1917'
p2511
I64
sS'1916'
p2512
I63
sS'grocery'
p2513
I2540
sS'grew'
p2514
I2537
sS'performers'
p2515
I4360
sS'alluding'
p2516
I430
sS'store'
p2517
I5520
sS'garrison'
p2518
I2396
sS'mickey'
p2519
I3777
sS'charlotte'
p2520
I1215
sS'alongside'
p2521
I437
sS'novak'
p2522
I4106
sS'jyvaskyla'
p2523
I3174
sS'witherbee'
p2524
I6234
sS'lie'
p2525
I3449
sS'cherokee'
p2526
I1232
sS'arshad'
p2527
I584
sS'lin'
p2528
I3465
sS'scotland'
p2529
I5128
sS'officers'
p2530
I4161
sS'lit'
p2531
I3480
sS'liu'
p2532
I3487
sS'kan'
p2533
I3187
sS'hired'
p2534
I2725
sS'aires'
p2535
I384
sS'kibaki'
p2536
I3237
sS'performances'
p2537
I4358
sS'clear'
p2538
I1324
sS'popularity'
p2539
I4496
sS'tahiraj'
p2540
I5647
sS'laroche'
p2541
I3359
sS'usual'
p2542
I6000
sS'physics'
p2543
I4402
sS'celebrated'
p2544
I1165
sS'downhills'
p2545
I1859
sS'acerbic'
p2546
I296
sS'sheik'
p2547
I5241
sS'albums'
p2548
I401
sS'hailed'
p2549
I2586
sS'northern'
p2550
I4094
sS'duncan'
p2551
I1893
sS'justice'
p2552
I3171
sS'pretty'
p2553
I4564
sS'meanwhile'
p2554
I3714
sS'zambia'
p2555
I6339
sS'trees'
p2556
I5870
sS'famous'
p2557
I2155
sS'feels'
p2558
I2188
sS'during'
p2559
I1897
sS'imitating'
p2560
I2873
sS'alexander'
p2561
I407
sS'defreitas'
p2562
I1680
sS'abolitionists'
p2563
I273
sS'switzerland'
p2564
I5625
sS'x'
p2565
I6282
sS'poisoned'
p2566
I4466
sS'maurice'
p2567
I3696
sS'prague'
p2568
I4532
sS'kiran'
p2569
I3258
sS'close'
p2570
I1337
sS'inkandla'
p2571
I2943
sS'platelet'
p2572
I4439
sS'probably'
p2573
I4590
sS'conditions'
p2574
I1432
sS'pictured'
p2575
I4409
sS'missing'
p2576
I3827
sS'ranked'
p2577
I4742
sS'genre'
p2578
I2421
sS'hardline'
p2579
I2616
sS'both'
p2580
I941
sS'toward'
p2581
I5838
sS'fiance'
p2582
I2202
sS'sensitive'
p2583
I5186
sS'lydda'
p2584
I3566
sS'canadians'
p2585
I1093
sS'liked'
p2586
I3457
sS'headed'
p2587
I2652
sS'battery'
p2588
I760
sS'ferrero'
p2589
I2196
sS'described'
p2590
I1728
sS'airstrikes'
p2591
I386
sS'territory'
p2592
I5720
sS'walter'
p2593
I6115
sS'imam'
p2594
I2871
sS'dialogue'
p2595
I1761
sS'lived'
p2596
I3490
sS'partly'
p2597
I4312
sS'anthony'
p2598
I508
sS'lives'
p2599
I3492
sS'bidding'
p2600
I850
sS'pact'
p2601
I4267
sS'look'
p2602
I3518
sS'socialist'
p2603
I5365
sS'governor'
p2604
I2496
sS'pace'
p2605
I4265
sS'while'
p2606
I6192
sS'kara'
p2607
I3190
sS'endanger'
p2608
I1994
sS'gmt'
p2609
I2462
sS'mitchell'
p2610
I3834
sS'underground'
p2611
I5956
sS'gonxha'
p2612
I2479
sS'overlooked'
p2613
I4253
sS'rulers'
p2614
I5022
sS'ready'
p2615
I4767
sS'fannie'
p2616
I2159
sS'fairer'
p2617
I2137
sS'albany'
p2618
I396
sS'grant'
p2619
I2515
sS'grand'
p2620
I2509
sS'composition'
p2621
I1418
sS'conflict'
p2622
I1440
sS'indianapolis'
p2623
I2914
sS'classmates'
p2624
I1320
sS'bonus'
p2625
I924
sS'blair'
p2626
I877
sS'youngsters'
p2627
I6326
sS'000'
p2628
I12
sS'yeltsin'
p2629
I6307
sS'haunting'
p2630
I2638
sS'brussels'
p2631
I1010
sS'kurdish'
p2632
I3314
sS'older'
p2633
I4172
sS'poland'
p2634
I4470
sS'lim'
p2635
I3461
sS'reintegrating'
p2636
I4822
sS'coup'
p2637
I1531
sS'settlements'
p2638
I5212
sS'iqbal'
p2639
I3001
sS'taiwan'
p2640
I5650
sS'retirement'
p2641
I4900
sS'wounding'
p2642
I6269
sS'sprinter'
p2643
I5447
sS'cemetery'
p2644
I1171
sS'barack'
p2645
I735
sS'remaining'
p2646
I4834
sS'alcala'
p2647
I402
sS'marco'
p2648
I3647
sS'march'
p2649
I3645
sS'showing'
p2650
I5277
sS'game'
p2651
I2381
sS'gama'
p2652
I2378
sS'wings'
p2653
I6224
sS'pillar'
p2654
I4414
sS'lucretia'
p2655
I3551
sS'popular'
p2656
I4495
sS'patriots'
p2657
I4329
sS'sketch'
p2658
I5329
sS'creation'
p2659
I1548
sS'some'
p2660
I5379
sS'pierre'
p2661
I4412
sS'urgent'
p2662
I5990
sS'lips'
p2663
I3476
sS'economic'
p2664
I1919
sS'qatar'
p2665
I4680
sS'describing'
p2666
I1729
sS'warnings'
p2667
I6126
sS'foley'
p2668
I2274
sS'run'
p2669
I5026
sS'rue'
p2670
I5019
sS'step'
p2671
I5496
sS'abroad'
p2672
I277
sS'pervez'
p2673
I4376
sS'troops'
p2674
I5887
sS'shine'
p2675
I5252
sS'geidar'
p2676
I2411
sS'wicker'
p2677
I6202
sS'edvard'
p2678
I1931
sS'congressman'
p2679
I1449
sS'block'
p2680
I886
sS'seeing'
p2681
I5160
sS'pribylovsky'
p2682
I4567
sS'70'
p2683
I226
sS'carlton'
p2684
I1130
sS'ahmadinejad'
p2685
I373
sS'bargnani'
p2686
I740
sS'statistics'
p2687
I5485
sS'bangladesh'
p2688
I727
sS'azebaijan'
p2689
I688
sS'rivalries'
p2690
I4955
sS'heritage'
p2691
I2698
sS'78'
p2692
I233
sS'rees'
p2693
I4801
sS'reed'
p2694
I4799
sS'alive'
p2695
I415
sS'russian'
p2696
I5037
sS'paducah'
p2697
I4270
sS'lords'
p2698
I3525
sS'malik'
p2699
I3614
sS'similar'
p2700
I5304
sS'slobodan'
p2701
I5344
sS'ordered'
p2702
I4213
sS'1898'
p2703
I46
sS'1899'
p2704
I47
sS'1894'
p2705
I45
sS'1890'
p2706
I43
sS'1892'
p2707
I44
sS'soderling'
p2708
I5367
sS'nan'
p2709
I3984
sS'armenians'
p2710
I563
sS'politicians'
p2711
I4478
sS'department'
p2712
I1715
sS'manhattan'
p2713
I3628
sS'spectators'
p2714
I5423
sS'wohl'
p2715
I6240
sS'kansas'
p2716
I3189
sS'contested'
p2717
I1480
sS'visits'
p2718
I6079
sS'william'
p2719
I6213
sS'militants'
p2720
I3797
sS'e'
p2721
I1904
sS'resolving'
p2722
I4884
sS'kilometre'
p2723
I3249
sS'pearce'
p2724
I4341
sS'nasreen'
p2725
I3991
sS'ga'
p2726
I2370
sS'go'
p2727
I2463
sS'kate'
p2728
I3202
sS'compact'
p2729
I1405
sS'birthplace'
p2730
I869
sS'stunned'
p2731
I5560
sS'mosque'
p2732
I3896
sS'breakout'
p2733
I971
sS'nkau'
p2734
I4073
sS'friendly'
p2735
I2347
sS'wave'
p2736
I6141
sS'rushdie'
p2737
I5033
sS'zhejiang'
p2738
I6345
sS'telling'
p2739
I5699
sS'literary'
p2740
I3481
sS'tokyo'
p2741
I5809
sS'michael'
p2742
I3773
sS'ryan'
p2743
I5043
sS'assignments'
p2744
I619
sS'waxman'
p2745
I6145
sS'mutharika'
p2746
I3965
sS'barbara'
p2747
I737
sS'carter'
p2748
I1140
sS'riyadh'
p2749
I4960
sS'bogota'
p2750
I907
sS'picked'
p2751
I4407
sS'marurai'
p2752
I3673
sS'honors'
p2753
I2767
sS'sausage'
p2754
I5095
sS'plays'
p2755
I4447
sS'chicopee'
p2756
I1239
sS'bergman'
p2757
I823
sS'cell'
p2758
I1169
sS'volatile'
p2759
I6089
sS'stockbridge'
p2760
I5509
sS'pristine'
p2761
I4585
sS'nicholas'
p2762
I4055
sS'stance'
p2763
I5463
sS'kidnapper'
p2764
I3239
sS'commercial'
p2765
I1392
sS'following'
p2766
I2280
sS'focused'
p2767
I2271
sS'micah'
p2768
I3771
sS'kissinger'
p2769
I3262
sS'haneya'
p2770
I2606
sS'stepanek'
p2771
I5497
sS'gene'
p2772
I2415
sS'hosp'
p2773
I2780
sS'clark'
p2774
I1312
sS'danger'
p2775
I1611
sS'clare'
p2776
I1309
sS'win'
p2777
I6218
sS'clout'
p2778
I1341
sS'austria'
p2779
I663
sS'singing'
p2780
I5316
sS'cloud'
p2781
I1340
sS'announced'
p2782
I502
sS'remains'
p2783
I4835
sS'bourgoin'
p2784
I946
sS'vehicle'
p2785
I6027
sS'simpler'
p2786
I5309
sS'malawi'
p2787
I3609
sS'bureaucracy'
p2788
I1028
sS'compatriot'
p2789
I1409
sS'formally'
p2790
I2295
sS'biblical'
p2791
I847
sS'started'
p2792
I5475
sS'missile'
p2793
I3826
sS'israelis'
p2794
I3025
sS'kettering'
p2795
I3228
sS'stafford'
p2796
I5457
sS'announcing'
p2797
I503
sS'sanctions'
p2798
I5077
sS'meet'
p2799
I3729
sS'trautmann'
p2800
I5864
sS'control'
p2801
I1488
sS'beijing'
p2802
I786
sS'links'
p2803
I3474
sS'providers'
p2804
I4646
sS'abeokuta'
p2805
I266
sS'escaped'
p2806
I2040
sS'pulling'
p2807
I4659
sS'sought'
p2808
I5396
sS'founding'
p2809
I2306
sS'voice'
p2810
I6087
sS'biarritz'
p2811
I845
sS'kolkata'
p2812
I3285
sS'bagaragaza'
p2813
I709
sS'farm'
p2814
I2163
sS'tillman'
p2815
I5787
sS'ronald'
p2816
I4995
sS'revered'
p2817
I4910
sS'agenda'
p2818
I357
sS'fresno'
p2819
I2341
sS'gunman'
p2820
I2567
sS'newsweek'
p2821
I4048
sS'outer'
p2822
I4243
sS'backers'
p2823
I700
sS'housewife'
p2824
I2798
sS'bonsu'
p2825
I923
sS'youngster'
p2826
I6325
sS'berrigan'
p2827
I830
sS'talabani'
p2828
I5655
sS'hands'
p2829
I2605
sS'front'
p2830
I2350
sS'kilometres'
p2831
I3250
sS'masters'
p2832
I3685
sS'titian'
p2833
I5799
sS'university'
p2834
I5971
sS'gemayel'
p2835
I2413
sS'pools'
p2836
I4491
sS'rennes'
p2837
I4847
sS'commonwealth'
p2838
I1399
sS'joyce'
p2839
I3151
sS'serbia'
p2840
I5196
sS'703'
p2841
I227
sS'investigative'
p2842
I2997
sS'measure'
p2843
I3715
sS'special'
p2844
I5421
sS'butch'
p2845
I1050
sS'entertainment'
p2846
I2016
sS'skagway'
p2847
I5328
sS'trunov'
p2848
I5896
sS'mere'
p2849
I3759
sS'activist'
p2850
I308
sS'calif'
p2851
I1069
sS'achievements'
p2852
I297
sS'undated'
p2853
I5953
sS'delegates'
p2854
I1689
sS'attending'
p2855
I643
sS'jill'
p2856
I3112
sS'conservatives'
p2857
I1461
sS'princess'
p2858
I4577
sS'resumed'
p2859
I4897
sS'nelsonville'
p2860
I4031
sS'1981'
p2861
I125
sS'florida'
p2862
I2266
sS'mac'
p2863
I3576
sS'keep'
p2864
I3211
sS'counterpart'
p2865
I1524
sS'austin'
p2866
I661
sS'berlusconi'
p2867
I827
sS'yong'
p2868
I6318
sS'evans'
p2869
I2063
sS'possessing'
p2870
I4511
sS'powerful'
p2871
I4529
sS'kollek'
p2872
I3286
sS'congo'
p2873
I1446
sS'disapproval'
p2874
I1793
sS'uribe'
p2875
I5992
sS'privacy'
p2876
I4586
sS'bears'
p2877
I771
sS'relations'
p2878
I4824
sS'attack'
p2879
I635
sS'bourgknecht'
p2880
I945
sS'wilkinson'
p2881
I6211
sS'final'
p2882
I2224
sS'malibu'
p2883
I3612
sS'viktor'
p2884
I6063
sS'punish'
p2885
I4661
sS'ultimatum'
p2886
I5942
sS'ben'
p2887
I809
sS'submitted'
p2888
I5565
sS'chihowa'
p2889
I1241
sS'siddiqui'
p2890
I5284
sS'julian'
p2891
I3158
sS'keller'
p2892
I3213
sS'border'
p2893
I932
sS'vieira'
p2894
I6055
sS'fossett'
p2895
I2302
sS'able'
p2896
I271
sS'relatives'
p2897
I4826
sS'sprinkled'
p2898
I5446
sS'gunned'
p2899
I2568
sS'medals'
p2900
I3720
sS'ivanovic'
p2901
I3040
sS'jorge'
p2902
I3141
sS'connected'
p2903
I1452
sS'plumber'
p2904
I4453
sS'rostropovich'
p2905
I5007
sS'consequences'
p2906
I1459
sS'prickly'
p2907
I4569
sS'nisshin'
p2908
I4069
sS'businessman'
p2909
I1046
sS'bordeaux'
p2910
I931
sS'impression'
p2911
I2888
sS'parker'
p2912
I4303
sS'soldiers'
p2913
I5372
sS'partners'
p2914
I4314
sS'based'
p2915
I752
sS'earned'
p2916
I1910
sS'winner'
p2917
I6225
sS'hopeful'
p2918
I2771
sS'won'
p2919
I6246
sS'inherited'
p2920
I2938
sS'fuel'
p2921
I2352
sS'employed'
p2922
I1986
sS'boris'
p2923
I935
sS'michigan'
p2924
I3776
sS'overall'
p2925
I4250
sS'baptist'
p2926
I732
sS'joint'
p2927
I3134
sS'magistrate'
p2928
I3592
sS'129'
p2929
I23
sS'thomson'
p2930
I5768
sS'gray'
p2931
I2523
sS'evolution'
p2932
I2078
sS'hiring'
p2933
I2726
sS'shy'
p2934
I5282
sS'mohammed'
p2935
I3856
sS'yannick'
p2936
I6299
sS'she'
p2937
I5238
sS'contain'
p2938
I1477
sS'shi'
p2939
I5247
sS'prayers'
p2940
I4539
sS'arundhati'
p2941
I593
sS'immigrant'
p2942
I2876
sS'officials'
p2943
I4164
sS'rifts'
p2944
I4939
sS'tenn'
p2945
I5707
sS'state'
p2946
I5479
sS'luo'
p2947
I3559
sS'ken'
p2948
I3216
sS'importance'
p2949
I2884
sS'jamieson'
p2950
I3062
sS'key'
p2951
I3230
sS'police'
p2952
I4472
sS'pilgrims'
p2953
I4413
sS'career'
p2954
I1120
sS'olga'
p2955
I4175
sS'strains'
p2956
I5527
sS'jersey'
p2957
I3096
sS'diplomats'
p2958
I1784
sS'tuesday'
p2959
I5906
sS'denise'
p2960
I1711
sS'quit'
p2961
I4697
sS'dortmund'
p2962
I1853
sS'deaths'
p2963
I1644
sS'pelous'
p2964
I4345
sS'yao'
p2965
I6301
sS'sary'
p2966
I5089
sS'yai'
p2967
I6295
sS'poet'
p2968
I4461
sS'yad'
p2969
I6294
sS'armistice'
p2970
I566
sS'pontus'
p2971
I4489
sS'league'
p2972
I3393
sS'orphanage'
p2973
I4227
sS'netanyahu'
p2974
I4036
sS'macel'
p2975
I3578
sS'harder'
p2976
I2615
sS'salman'
p2977
I5063
sS'eagleton'
p2978
I1906
sS'noves'
p2979
I4109
sS'resident'
p2980
I4877
sS'simone'
p2981
I5307
sS'capture'
p2982
I1110
sS'varanasi'
p2983
I6016
sS'blasphemous'
p2984
I881
sS"o'brien"
p2985
I4133
sS'began'
p2986
I782
sS'tripoli'
p2987
I5883
sS'havre'
p2988
I2644
sS'parts'
p2989
I4316
sS'speaker'
p2990
I5417
sS'incumbent'
p2991
I2906
sS'eclectic'
p2992
I1918
sS'party'
p2993
I4317
sS'dzheguta'
p2994
I1903
sS'fraternity'
p2995
I2328
sS'effect'
p2996
I1936
sS'fierce'
p2997
I2207
sS'frequently'
p2998
I2339
sS'spree'
p2999
I5442
sS'destruction'
p3000
I1739
sS'weld'
p3001
I6167
sS'i'
p3002
I2841
sS'well'
p3003
I6169
sS'theodor'
p3004
I5747
sS'trials'
p3005
I5874
sS'restore'
p3006
I4892
sS'sofia'
p3007
I5369
sS'detail'
p3008
I1740
sS'sources'
p3009
I5402
sS'soulja'
p3010
I5397
sS'alegria'
p3011
I404
sS'logged'
p3012
I3510
sS'patricia'
p3013
I4326
sS'nato'
p3014
I4002
sS'brandfort'
p3015
I962
sS'riverside'
p3016
I4957
sS'miramar'
p3017
I3820
sS'sonia'
p3018
I5385
sS'devised'
p3019
I1755
sS'utah'
p3020
I6002
sS'propelled'
p3021
I4624
sS'262'
p3022
I171
sS'immediately'
p3023
I2874
sS'prominent'
p3024
I4614
sS'lincoln'
p3025
I3466
sS'renegade'
p3026
I4845
sS'lost'
p3027
I3531
sS'lose'
p3028
I3528
sS'page'
p3029
I4272
sS'shea'
p3030
I5239
sS'belonged'
p3031
I804
sS'phenomena'
p3032
I4384
sS'library'
p3033
I3447
sS'tempered'
p3034
I5702
sS'cleveland'
p3035
I1330
sS'home'
p3036
I2753
sS'peter'
p3037
I4379
sS'wendo'
p3038
I6172
sS'delaware'
p3039
I1685
sS'cradle'
p3040
I1542
sS'camilo'
p3041
I1083
sS'journal'
p3042
I3146
sS'expansion'
p3043
I2089
sS'poignant'
p3044
I4462
sS'dwright'
p3045
I1899
sS'refuge'
p3046
I4807
sS'izzat'
p3047
I3044
sS'previously'
p3048
I4566
sS'washington'
p3049
I6133
sS'artists'
p3050
I591
sS'mississippi'
p3051
I3829
sS'accused'
p3052
I295
sS'museum'
p3053
I3955
sS'daniels'
p3054
I1615
sS'noticed'
p3055
I4101
sS'medgar'
p3056
I3721
sS'dolphins'
p3057
I1840
sS'recruited'
p3058
I4791
sS'north'
p3059
I4090
sS'tyner'
p3060
I5929
sS'hu'
p3061
I2807
sS'kirchgasser'
p3062
I3260
sS'ho'
p3063
I2737
sS'highest'
p3064
I2714
sS'he'
p3065
I2650
sS'demilitarized'
p3066
I1701
sS'hosting'
p3067
I2786
sS'signed'
p3068
I5295
sS'jhapa'
p3069
I3107
sS'trainor'
p3070
I5857
sS'converted'
p3071
I1492
sS'limit'
p3072
I3463
sS'piece'
p3073
I4410
sS'display'
p3074
I1806
sS'urging'
p3075
I5991
sS'universal'
p3076
I5969
sS'jesuit'
p3077
I3100
sS'twist'
p3078
I5926
sS'conan'
p3079
I1423
sS'education'
p3080
I1930
sS'eric'
p3081
I2031
sS'kinshasa'
p3082
I3257
sS'moamer'
p3083
I3843
sS'offensive'
p3084
I4157
sS'barth'
p3085
I748
sS'germaine'
p3086
I2430
sS'fledgling'
p3087
I2258
sS'star'
p3088
I5471
sS'stay'
p3089
I5487
sS'stan'
p3090
I5462
sS'friends'
p3091
I2348
sS'curbed'
p3092
I1580
sS'martin'
p3093
I3667
sS'gardens'
p3094
I2393
sS'buyuksehir'
p3095
I1056
sS'uneducated'
p3096
I5959
sS'recalled'
p3097
I4778
sS'frankfurt'
p3098
I2323
sS'simpson'
p3099
I5311
sS'pardon'
p3100
I4298
sS'monette'
p3101
I3866
sS'dynamic'
p3102
I1901
sS'andre'
p3103
I476
sS'protest'
p3104
I4638
sS'asian'
p3105
I601
sS'aides'
p3106
I378
sS'captain'
p3107
I1107
sS'podres'
p3108
I4457
sS'whose'
p3109
I6200
sS'korman'
p3110
I3295
sS'aug'
p3111
I657
sS'swam'
p3112
I5616
sS'seles'
p3113
I5172
sS'hoddinott'
p3114
I2738
sS'teaching'
p3115
I5687
sS'sway'
p3116
I5617
sS'malmo'
p3117
I3617
sS'smack'
p3118
I5348
sS'adiga'
p3119
I320
sS'vast'
p3120
I6023
sS'companies'
p3121
I1406
sS'solution'
p3122
I5377
sS'herbert'
p3123
I2695
sS'heading'
p3124
I2653
sS'farmhouse'
p3125
I2164
sS'force'
p3126
I2286
sS'vladimir'
p3127
I6084
sS'japanese'
p3128
I3073
sS'mansion'
p3129
I3632
sS'likely'
p3130
I3458
sS'pattinson'
p3131
I4332
sS'even'
p3132
I2067
sS'zebari'
p3133
I6342
sS'asif'
p3134
I603
sS'panama'
p3135
I4290
sS'neb'
p3136
I4019
sS'asia'
p3137
I600
sS'spokesman'
p3138
I5436
sS'cheng'
p3139
I1230
sS'new'
p3140
I4041
sS'maverick'
p3141
I3698
sS'mel'
p3142
I3735
sS'henrik'
p3143
I2690
sS'drew'
p3144
I1874
sS'drev'
p3145
I1873
sS'anthropology'
p3146
I509
sS'met'
p3147
I3766
sS'karamanlis'
p3148
I3193
sS'100'
p3149
I20
sS'golda'
p3150
I2473
sS'spokane'
p3151
I5434
sS'economics'
p3152
I1920
sS'credit'
p3153
I1552
sS'omar'
p3154
I4186
sS'cindy'
p3155
I1285
sS'complicated'
p3156
I1416
sS'buckley'
p3157
I1014
sS'eyebrows'
p3158
I2117
sS'baptiste'
p3159
I733
sS'campaign'
p3160
I1085
sS'reagan'
p3161
I4768
sS'schooling'
p3162
I5114
sS'northbrook'
p3163
I4091
sS'decried'
p3164
I1662
sS'moral'
p3165
I3881
sS'guests'
p3166
I2561
sS'pyongyang'
p3167
I4674
sS'counts'
p3168
I1530
sS'army'
p3169
I571
sS'voters'
p3170
I6098
sS'arms'
p3171
I569
sS'call'
p3172
I1072
sS'calm'
p3173
I1077
sS'recommend'
p3174
I4786
sS'type'
p3175
I5930
sS'snowden'
p3176
I5358
sS'supporters'
p3177
I5594
sS'under'
p3178
I5954
sS'wars'
p3179
I6129
sS'loong'
p3180
I3522
sS'berlin'
p3181
I826
sS'kgb'
p3182
I3231
sS'adult'
p3183
I332
sS'ward'
p3184
I6122
sS'euro750'
p3185
I2059
sS'norwood'
p3186
I4096
sS'rights'
p3187
I4944
sS'movies'
p3188
I3921
sS'hansen'
p3189
I2608
sS'newfoundland'
p3190
I4043
sS'burris'
p3191
I1038
sS'give'
p3192
I2452
sS'chowrasia'
p3193
I1262
sS'boroughs'
p3194
I938
sS'kabul'
p3195
I3178
sS'frenkel'
p3196
I2337
sS'1750'
p3197
I37
sS'believers'
p3198
I801
sS'lithuanian'
p3199
I3483
sS'jankovic'
p3200
I3067
sS'president'
p3201
I4554
sS'capuano'
p3202
I1113
sS'karachi'
p3203
I3192
sS'purchase'
p3204
I4664
sS'attempt'
p3205
I639
sS'third'
p3206
I5764
sS'operate'
p3207
I4200
sS'bagosora'
p3208
I712
sS'680'
p3209
I223
sS'fifa'
p3210
I2208
sS'aharon'
p3211
I370
sS'holyoke'
p3212
I2752
sS'fable'
p3213
I2121
sS'captions'
p3214
I1108
sS'before'
p3215
I781
sS'scoring'
p3216
I5127
sS'personal'
p3217
I4372
sS'hezbollah'
p3218
I2707
sS','
p3219
I9
sS'stopover'
p3220
I5518
sS'better'
p3221
I836
sS'damascus'
p3222
I1605
sS'enlisted'
p3223
I2010
sS'weeks'
p3224
I6162
sS'overcome'
p3225
I4251
sS'belarus'
p3226
I792
sS'unemployed'
p3227
I5960
sS'atherosclerosis'
p3228
I629
sS'debakey'
p3229
I1645
sS'therapy'
p3230
I5752
sS'jenin'
p3231
I3087
sS'decorator'
p3232
I1660
sS'rhetoric'
p3233
I4917
sS'arrested'
p3234
I577
sS'mistrust'
p3235
I3832
sS'baylor'
p3236
I765
sS'lorenz'
p3237
I3526
sS'redding'
p3238
I4793
sS'side'
p3239
I5285
sS'calmly'
p3240
I1078
sS'akhtar'
p3241
I387
sS'chubby'
p3242
I1271
sS'navy'
p3243
I4008
sS'decree'
p3244
I1661
sS'kiev'
p3245
I3242
sS'markovna'
p3246
I3660
sS'restricted'
p3247
I4894
sS'crucial'
p3248
I1572
sS'roddick'
p3249
I4982
sS'tanweer'
p3250
I5667
sS'surprise'
p3251
I5600
sS'venezuela'
p3252
I6030
sS'kiel'
p3253
I3241
sS'kenteris'
p3254
I3220
sS'assaults'
p3255
I613
sS'soundtracks'
p3256
I5400
sS'resume'
p3257
I4896
sS'revenge'
p3258
I4908
sS'ramon'
p3259
I4734
sS'241'
p3260
I167
sS'beckwith'
p3261
I776
sS'starts'
p3262
I5478
sS'xue'
p3263
I6291
sS'signature'
p3264
I5294
sS'moving'
p3265
I3922
sS'loud'
p3266
I3534
sS'stewart'
p3267
I5506
sS'playwright'
p3268
I4448
sS'grade'
p3269
I2502
sS'madrassa'
p3270
I3586
sS'hook'
p3271
I2768
sS'featured'
p3272
I2179
sS'warped'
p3273
I6127
sS'yuan'
p3274
I6332
sS'strasbourg'
p3275
I5529
sS'joyandet'
p3276
I3150
sS'historian'
p3277
I2731
sS'garry'
p3278
I2397
sS'gandolfini'
p3279
I2384
sS'hollywood'
p3280
I2747
sS'feathers'
p3281
I2177
sS'gym'
p3282
I2577
sS'helen'
p3283
I2676
sS'shekhar'
p3284
I5243
sS'boarding'
p3285
I899
sS'distance'
p3286
I1812
sS'princeton'
p3287
I4578
sS'matter'
p3288
I3692
sS'solomon'
p3289
I5376
sS'street'
p3290
I5535
sS'perilli'
p3291
I4361
sS'spoiled'
p3292
I5433
sS'mitigating'
p3293
I3835
sS'sills'
p3294
I5300
sS'sees'
p3295
I5166
sS'minn'
p3296
I3813
sS'modern'
p3297
I3849
sS'mind'
p3298
I3805
sS'mining'
p3299
I3809
sS'ming'
p3300
I3808
sS'seed'
p3301
I5159
sS'seen'
p3302
I5165
sS'seek'
p3303
I5161
sS'chest'
p3304
I1234
sS'moscow'
p3305
I3891
sS'bethune'
p3306
I834
sS'marin'
p3307
I3655
sS'regular'
p3308
I4817
sS'maskin'
p3309
I3678
sS'maria'
p3310
I3653
sS'zealand'
p3311
I6341
sS'krister'
p3312
I3305
sS'don'
p3313
I1845
sS'medical'
p3314
I3723
sS'm'
p3315
I3573
sS'expulsions'
p3316
I2106
sS'points'
p3317
I4465
sS'lancashire'
p3318
I3345
sS'ambassador'
p3319
I449
sS'jurisdiction'
p3320
I3169
sS'ending'
p3321
I1996
sS'katerina'
p3322
I3203
sS'stepping'
p3323
I5501
sS'nevada'
p3324
I4039
sS'judges'
p3325
I3156
sS'northeast'
p3326
I4092
sS'weekends'
p3327
I6160
sS'zukerman'
p3328
I6352
sS'folks'
p3329
I2277
sS'desses'
p3330
I1737
sS'jailed'
p3331
I3057
sS'wearing'
p3332
I6153
sS'colorful'
p3333
I1370
sS'deforest'
p3334
I1679
sS'stop'
p3335
I5517
sS'piasecki'
p3336
I4406
sS'coast'
p3337
I1352
sS'christopher'
p3338
I1268
sS'vendrell'
p3339
I6029
sS'earl'
p3340
I1907
sS'bar'
p3341
I734
sS'bay'
p3342
I764
sS'bad'
p3343
I704
sS'briefed'
p3344
I978
sS'ban'
p3345
I722
sS'linguist'
p3346
I3471
sS'julien'
p3347
I3159
sS'decided'
p3348
I1654
sS'subject'
p3349
I5563
sS'brazil'
p3350
I967
sS'03'
p3351
I15
sS'00'
p3352
I11
sS'01'
p3353
I13
sS'04'
p3354
I16
sS'narrated'
p3355
I3988
sS'claremore'
p3356
I1310
sS'09'
p3357
I17
sS'olympics'
p3358
I4183
sS'sidney'
p3359
I5288
sS'vitamin'
p3360
I6081
sS'vernon'
p3361
I6036
sS'harvard'
p3362
I2629
sS'cousin'
p3363
I1537
sS'uncertainty'
p3364
I5951
sS'against'
p3365
I351
sS'ernst'
p3366
I2035
sS'enzo'
p3367
I2025
sS'ethel'
p3368
I2050
sS'fraenzi'
p3369
I2310
sS'appeared'
p3370
I526
sS'height'
p3371
I2670
sS'initiative'
p3372
I2940
sS'lertcheewakarn'
p3373
I3422
sS'springs'
p3374
I5445
sS'paerson'
p3375
I4271
sS'tasted'
p3376
I5678
sS'targeting'
p3377
I5671
sS'referendum'
p3378
I4803
sS'tiny'
p3379
I5795
sS'cyrus'
p3380
I1588
sS'commission'
p3381
I1393
sS'interest'
p3382
I2973
sS'entered'
p3383
I2013
sS'topics'
p3384
I5821
sS'chela'
p3385
I1226
sS'threw'
p3386
I5775
sS'website'
p3387
I6156
sS'prosperous'
p3388
I4635
sS'chun'
p3389
I1276
sS'165'
p3390
I33
sS'160'
p3391
I31
sS'unpopular'
p3392
I5975
sS'near'
p3393
I4016
sS'itinerary'
p3394
I3037
sS'reconnaissance'
p3395
I4787
sS'seven'
p3396
I5215
sS'hunan'
p3397
I2823
sS'mexico'
p3398
I3768
sS'is'
p3399
I3014
sS'nutter'
p3400
I4128
sS'it'
p3401
I3031
sS'ii'
p3402
I2858
sS'il'
p3403
I2861
sS'in'
p3404
I2895
sS'seattle'
p3405
I5147
sS'mouse'
p3406
I3914
sS'if'
p3407
I2854
sS'grown'
p3408
I2550
sS'occupied'
p3409
I4146
sS'make'
p3410
I3606
sS'confronting'
p3411
I1445
sS'mentor'
p3412
I3755
sS'meets'
p3413
I3732
sS'governors'
p3414
I2497
sS'sacramento'
p3415
I5049
sS'declaring'
p3416
I1659
sS'differing'
p3417
I1774
sS'bloomberg'
p3418
I891
sS'opportunity'
p3419
I4205
sS'chiluba'
p3420
I1246
sS'settled'
p3421
I5211
sS'failing'
p3422
I2134
sS'utzon'
p3423
I6005
sS'rome'
p3424
I4992
sS'reese'
p3425
I4802
sS'roma'
p3426
I4989
sS'claims'
p3427
I1305
sS'left'
p3428
I3407
sS'just'
p3429
I3170
sS'sentence'
p3430
I5188
sS'fighters'
p3431
I2211
sS'human'
p3432
I2817
sS'poussin'
p3433
I4524
sS'yet'
p3434
I6312
sS'yew'
p3435
I6313
sS'nicolas'
p3436
I4058
sS'belfast'
p3437
I795
sS'candidate'
p3438
I1098
sS'assassination'
p3439
I611
sS'friedrich'
p3440
I2345
sS'gustav'
p3441
I2572
sS'natal'
p3442
I3993
sS'corot'
p3443
I1505
sS"states'"
p3444
I5483
sS'nude'
p3445
I4120
sS'manual'
p3446
I3635
sS'disillusioned'
p3447
I1804
sS"d'ornans"
p3448
I1592
sS'www'
p3449
I6280
sS'dean'
p3450
I1641
sS'deal'
p3451
I1638
sS'ironically'
p3452
I3013
sS'dead'
p3453
I1635
sS'theatrical'
p3454
I5740
sS'normal'
p3455
I4088
sS'shakespeare'
p3456
I5222
sS'sarah'
p3457
I5084
sS'bole'
p3458
I911
sS'burt'
p3459
I1040
sS'hubei'
p3460
I2811
sS'confrontation'
p3461
I1444
sS'agbonlahor'
p3462
I352
sS'headstone'
p3463
I2656
sS'brahmin'
p3464
I958
sS'magazine'
p3465
I3588
sS'afternoon'
p3466
I349
sS'commit'
p3467
I1395
sS'maharashtra'
p3468
I3593
sS'automatically'
p3469
I670
sS'hotly'
p3470
I2790
sS'rockaway'
p3471
I4975
sS'formerly'
p3472
I2298
sS'prakash'
p3473
I4535
sS'sergio'
p3474
I5199
sS'kenya'
p3475
I3222
sS'intellectual'
p3476
I2966
sS'down'
p3477
I1858
sS'amsterdam'
p3478
I463
sS'communists'
p3479
I1402
sS'editor'
p3480
I1926
sS'vacated'
p3481
I6008
sS'factions'
p3482
I2130
sS'form'
p3483
I2293
sS'fireworks'
p3484
I2240
sS'landing'
p3485
I3348
sS'ford'
p3486
I2290
sS'failure'
p3487
I2135
sS'merafhe'
p3488
I3756
sS'surrender'
p3489
I5602
sS'atrocities'
p3490
I634
sS'staged'
p3491
I5459
sS'tucson'
p3492
I5904
sS'cosmos'
p3493
I1513
sS'daddy'
p3494
I1593
sS'propaganda'
p3495
I4623
sS'strengthening'
p3496
I5539
sS'fridland'
p3497
I2343
sS'classic'
p3498
I1317
sS'patzak'
p3499
I4333
sS'preki'
p3500
I4544
sS'muffins'
p3501
I3934
sS'ship'
p3502
I5254
sS'graft'
p3503
I2506
sS'styger'
p3504
I5561
sS'anesthesiologist'
p3505
I483
sS'digital'
p3506
I1777
sS'tamale'
p3507
I5663
sS'orenthal'
p3508
I4215
sS'why'
p3509
I6201
sS'felt'
p3510
I2193
sS'fell'
p3511
I2191
sS'authorities'
p3512
I667
sS'weekend'
p3513
I6159
sS'died'
p3514
I1771
sS'billion'
p3515
I859
sS'daily'
p3516
I1595
sS'restored'
p3517
I4893
sS'barkat'
p3518
I742
sS'revoke'
p3519
I4914
sS'eldest'
p3520
I1950
sS'manager'
p3521
I3622
sS'manages'
p3522
I3623
sS'playoffs'
p3523
I4446
sS'bomber'
p3524
I917
sS'jarre'
p3525
I3074
sS'suicide'
p3526
I5583
sS'basra'
p3527
I756
sS'elizabeth'
p3528
I1963
sS'technique'
p3529
I5691
sS'father'
p3530
I2169
sS'editors'
p3531
I1927
sS'0'
p3532
I10
sS'praised'
p3533
I4533
sS'petersburg'
p3534
I4380
sS'marks'
p3535
I3661
sS'sovereignty'
p3536
I5409
sS'must'
p3537
I3963
sS'carabanchel'
p3538
I1115
sS'adviser'
p3539
I339
sS'llewellyn'
p3540
I3497
sS'billionaire'
p3541
I860
sS'stenson'
p3542
I5495
sS'lynch'
p3543
I3567
sS'ma'
p3544
I3574
sS'governments'
p3545
I2495
sS'divorced'
p3546
I1819
sS'chaldean'
p3547
I1187
sS'did'
p3548
I1769
sS'die'
p3549
I1770
sS'henri'
p3550
I2689
sS'democrat'
p3551
I1703
sS'round'
p3552
I5010
sS'olympic'
p3553
I4182
sS'talked'
p3554
I5660
sS'villa'
p3555
I6064
sS'boards'
p3556
I900
sS'50th'
p3557
I202
sS'stef'
p3558
I5491
sS'bacterial'
p3559
I703
sS'afghanistan'
p3560
I345
sS'suspect'
p3561
I5609
sS'somalia'
p3562
I5378
sS'oyebola'
p3563
I4262
sS'international'
p3564
I2979
sS'bleckede'
p3565
I883
sS'filled'
p3566
I2220
sS'passaic'
p3567
I4320
sS'guardian'
p3568
I2557
sS'clerk'
p3569
I1329
sS'mr'
p3570
I3926
sS'french'
p3571
I2336
sS'kilometers'
p3572
I3248
sS"'60s"
p3573
I3
sS'boy'
p3574
I952
sS'hbo'
p3575
I2649
sS'canadian'
p3576
I1092
sS'institute'
p3577
I2958
sS'muallem'
p3578
I3929
sS'jungles'
p3579
I3166
sS'simultaneous'
p3580
I5312
sS'diagnosed'
p3581
I1760
sS'bob'
p3582
I901
sS'taipei'
p3583
I5649
sS'elect'
p3584
I1952
sS'bekri'
p3585
I790
sS'marmottan'
p3586
I3663
sS'ailing'
p3587
I379
sS'transplant'
p3588
I5862
sS'franco'
p3589
I2320
sS'sake'
p3590
I5059
sS'franca'
p3591
I2314
sS'visit'
p3592
I6075
sS'france'
p3593
I2316
sS"o'hair"
p3594
I4134
sS'peru'
p3595
I4374
sS'cooperated'
p3596
I1497
sS'nicosia'
p3597
I4060
sS'sharing'
p3598
I5233
sS'downtown'
p3599
I1861
sS'downing'
p3600
I1860
sS'olive'
p3601
I4176
sS'caroline'
p3602
I1135
sS'gedi'
p3603
I2410
sS'ulm'
p3604
I5941
sS'fla'
p3605
I2250
sS'making'
p3606
I3608
sS'claim'
p3607
I1303
sS'kenneth'
p3608
I3218
sS'winston'
p3609
I6227
sS'agent'
p3610
I358
sS'council'
p3611
I1521
sS'kennett'
p3612
I3219
sS'dennis'
p3613
I1713
sS'bosingwa'
p3614
I939
sS'ultranationalist'
p3615
I5944
sS'oslo'
p3616
I4231
sS'chemical'
p3617
I1227
sS'anneliese'
p3618
I498
sS'sunday'
p3619
I5589
sS'swore'
p3620
I5626
sS'sworn'
p3621
I5627
sS'144'
p3622
I27
sS'mar'
p3623
I3641
sS'may'
p3624
I3700
sS'max'
p3625
I3699
sS'misrepresented'
p3626
I3823
sS'membership'
p3627
I3743
sS'jintao'
p3628
I3119
sS'designed'
p3629
I1734
sS'grow'
p3630
I2549
sS'mao'
p3631
I3639
sS'man'
p3632
I3621
sS'neck'
p3633
I4021
sS'johnson'
p3634
I3130
sS'avant'
p3635
I675
sS'tale'
p3636
I5656
sS'francais'
p3637
I2315
sS'pickett'
p3638
I4408
sS'jail'
p3639
I3056
sS'african'
p3640
I347
sS'tall'
p3641
I5662
sS'tbilisi'
p3642
I5685
sS'talk'
p3643
I5659
sS'framing'
p3644
I2313
sS'shield'
p3645
I5248
sS'rabbi'
p3646
I4704
sS'pointed'
p3647
I4464
sS'argues'
p3648
I554
sS'stendahl'
p3649
I5494
sS'group'
p3650
I2546
sS'monitor'
p3651
I3869
sS'coaching'
p3652
I1349
sS'policy'
p3653
I4475
sS'main'
p3654
I3599
sS'texas'
p3655
I5727
sS'within'
p3656
I6235
sS'finance'
p3657
I2225
sS'views'
p3658
I6060
sS'rattled'
p3659
I4751
sS'belchertown'
p3660
I793
sS'aspirations'
p3661
I607
sS'killed'
p3662
I3244
sS'hulten'
p3663
I2816
sS'rock'
p3664
I4974
sS'deandre'
p3665
I1642
sS'sopranos'
p3666
I5390
sS'girl'
p3667
I2447
sS'carlisle'
p3668
I1127
sS'canada'
p3669
I1091
sS'living'
p3670
I3493
sS'guangdong'
p3671
I2553
sS'jackson'
p3672
I3050
sS'emerged'
p3673
I1974
sS'enduring'
p3674
I2000
sS'pizzeria'
p3675
I4424
sS'robles'
p3676
I4971
sS'attiyah'
p3677
I645
sS'bombs'
p3678
I920
sS'quran'
p3679
I4701
sS'california'
p3680
I1070
sS'org'
p3681
I4216
sS'ore'
p3682
I4214
sS'advance'
p3683
I333
sS'watts'
p3684
I6140
sS'ministry'
p3685
I3812
sS'thing'
p3686
I5760
sS'think'
p3687
I5762
sS'frequent'
p3688
I2338
sS'macon'
p3689
I3580
sS'fleeing'
p3690
I2259
sS'suspended'
p3691
I5611
sS'sounds'
p3692
I5399
sS'tiebreak'
p3693
I5782
sS'little'
p3694
I3484
sS'hoffleit'
p3695
I2739
sS'alfred'
p3696
I410
sS'participated'
p3697
I4309
sS'speaking'
p3698
I5419
sS'eyes'
p3699
I2118
sS'allegedly'
p3700
I421
sS'memo'
p3701
I3744
sS'hillary'
p3702
I2718
sS'nagasaki'
p3703
I3977
sS'hartford'
p3704
I2628
sS'butz'
p3705
I1054
sS'11'
p3706
I21
sS'10'
p3707
I19
sS'13'
p3708
I24
sS'12'
p3709
I22
sS'15'
p3710
I28
sS'14'
p3711
I26
sS'17'
p3712
I36
sS'16'
p3713
I30
sS'19'
p3714
I48
sS'18'
p3715
I38
sS'were'
p3716
I6174
sS'preston'
p3717
I4562
sS'occupies'
p3718
I4147
sS'defecting'
p3719
I1670
sS'himself'
p3720
I2721
sS'portrait'
p3721
I4502
sS'maribor'
p3722
I3654
sS'nazi'
p3723
I4010
sS'kevin'
p3724
I3229
sS'warsaw'
p3725
I6130
sS'speakers'
p3726
I5418
sS'bavaria'
p3727
I763
sS'squad'
p3728
I5450
sS'interior'
p3729
I2978
sS'performance'
p3730
I4357
sS'beirut'
p3731
I788
sS'bets'
p3732
I835
sS'200'
p3733
I145
sS'gelowicz'
p3734
I2412
sS'norman'
p3735
I4089
sS'roster'
p3736
I5006
sS'track'
p3737
I5841
sS'paid'
p3738
I4274
sS'pair'
p3739
I4277
sS'pais'
p3740
I4278
sS'queens'
p3741
I4690
sS'radioactive'
p3742
I4717
sS'especially'
p3743
I2043
sS'karachayevo'
p3744
I3191
sS'shop'
p3745
I5264
sS'rating'
p3746
I4749
sS'medalist'
p3747
I3718
sS'shot'
p3748
I5271
sS'show'
p3749
I5274
sS'mirza'
p3750
I3822
sS'dick'
p3751
I1765
sS'enough'
p3752
I2011
sS'lauded'
p3753
I3367
sS'black'
p3754
I873
sS'deployed'
p3755
I1716
sS'moreau'
p3756
I3883
sS'hungarian'
p3757
I2826
sS'get'
p3758
I2433
sS'contracts'
p3759
I1486
sS'merkel'
p3760
I3761
sS'designated'
p3761
I1733
sS'killers'
p3762
I3245
sS'nearly'
p3763
I4018
sS'yvonne'
p3764
I6336
sS'gen'
p3765
I2414
sS'muschamp'
p3766
I3952
sS'morning'
p3767
I3888
sS'miles'
p3768
I3794
sS'miley'
p3769
I3795
sS'finishing'
p3770
I2231
sS'mogadishu'
p3771
I3854
sS'ricco'
p3772
I4925
sS'declared'
p3773
I1658
sS'seat'
p3774
I5144
sS'huckabee'
p3775
I2812
sS'lausanne'
p3776
I3372
sS'sean'
p3777
I5141
sS'eliminating'
p3778
I1961
sS'wonder'
p3779
I6247
sS'ocala'
p3780
I4143
sS'behind'
p3781
I785
sS'reading'
p3782
I4766
sS'across'
p3783
I302
sS'infrastructure'
p3784
I2933
sS'august'
p3785
I658
sS'legitimacy'
p3786
I3417
sS'kristal'
p3787
I3304
sS'letterman'
p3788
I3429
sS'jr'
p3789
I3152
sS'killing'
p3790
I3246
sS'charalee'
p3791
I1205
sS'jo'
p3792
I3120
sS'ji'
p3793
I3108
sS'nationality'
p3794
I3998
sS'lopez'
p3795
I3523
sS'jfk'
p3796
I3106
sS'dedicate'
p3797
I1663
sS'apiata'
p3798
I522
sS'dated'
p3799
I1622
sS'stingley'
p3800
I5508
sS'guardians'
p3801
I2558
sS'sittingbourne'
p3802
I5325
sS'traded'
p3803
I5844
sS'among'
p3804
I461
sS'cancer'
p3805
I1096
sS'maintained'
p3806
I3603
sS'considering'
p3807
I1467
sS'arts'
p3808
I592
sS'caricature'
p3809
I1125
sS'barry'
p3810
I747
sS'ucla'
p3811
I5934
sS'mark'
p3812
I3657
sS'maru'
p3813
I3672
sS'borders'
p3814
I933
sS'mary'
p3815
I3674
sS'declaration'
p3816
I1657
sS'yugoslav'
p3817
I6335
sS'those'
p3818
I5769
sS'sound'
p3819
I5398
sS'antonioni'
p3820
I516
sS'klaus'
p3821
I3266
sS'margit'
p3822
I3651
sS'kanerva'
p3823
I3188
sS"n't"
p3824
I3974
sS'ongoing'
p3825
I4190
sS'residence'
p3826
I4875
sS'investigating'
p3827
I2995
sS'awakened'
p3828
I680
sS'margin'
p3829
I3650
sS'versus'
p3830
I6038
sS'rammed'
p3831
I4733
sS'marcel'
p3832
I3644
sS'according'
p3833
I291
sS'middle'
p3834
I3779
sS'aboutaleb'
p3835
I275
sS'gravenhurst'
p3836
I2521
sS'movements'
p3837
I3918
sS'grimsby'
p3838
I2539
sS'doctor'
p3839
I1829
sS'pay'
p3840
I4337
sS'edwin'
p3841
I1934
sS'tour'
p3842
I5831
sS'lava'
p3843
I3373
sS'speech'
p3844
I5426
sS'arguments'
p3845
I555
sS'bagh'
p3846
I710
sS'pak'
p3847
I4280
sS'jeffrey'
p3848
I3085
sS'oil'
p3849
I4167
sS'munch'
p3850
I3947
sS'companion'
p3851
I1407
sS'running'
p3852
I5028
sS'driven'
p3853
I1877
sS'assisi'
p3854
I620
sS'somis'
p3855
I5383
sS'hispanics'
p3856
I2730
sS'iraqis'
p3857
I3006
sS'gates'
p3858
I2400
sS'monet'
p3859
I3865
sS'money'
p3860
I3867
sS'moiseyev'
p3861
I3857
sS'sights'
p3862
I5292
sS'doctoral'
p3863
I1830
sS'dipped'
p3864
I1785
sS'4'
p3865
I189
sS'masimba'
p3866
I3676
sS'careers'
p3867
I1121
sS'jake'
p3868
I3059
sS'schwarzenegger'
p3869
I5119
sS'dissected'
p3870
I1809
sS'mok'
p3871
I3858
sS'stubb'
p3872
I5550
sS'moo'
p3873
I3879
sS'mob'
p3874
I3844
sS'railroad'
p3875
I4723
sS'aiming'
p3876
I381
sS'disappointed'
p3877
I1792
sS'adams'
p3878
I315
sS'christine'
p3879
I1266
sS"'ve"
p3880
I8
sS'facing'
p3881
I2128
sS'audience'
p3882
I653
sS'either'
p3883
I1946
sS'served'
p3884
I5204
sS'jews'
p3885
I3105
sS'missoula'
p3886
I3830
sS'wigan'
p3887
I6207
sS'images'
p3888
I2870
sS'nazism'
p3889
I4012
sS'ascent'
p3890
I595
sS'joao'
p3891
I3123
sS'carmona'
p3892
I1132
sS'sudan'
p3893
I5578
sS'stages'
p3894
I5460
sS'kmt'
p3895
I3269
sS'abercrombie'
p3896
I267
sS'wilmington'
p3897
I6215
sS'mwai'
p3898
I3967
sS'olof'
p3899
I4180
sS'ornans'
p3900
I4225
sS'seconds'
p3901
I5151
sS'dali'
p3902
I1600
sS'jennings'
p3903
I3090
sS'broker'
p3904
I993
sS'broken'
p3905
I992
sS'binghamton'
p3906
I863
sS'manufacturer'
p3907
I3636
sS'conducting'
p3908
I1434
sS'wettinger'
p3909
I6182
sS'hicks'
p3910
I2708
sS'island'
p3911
I3020
sS'violence'
p3912
I6068
sS'niyazov'
p3913
I4072
sS'west'
p3914
I6177
sS'mixed'
p3915
I3837
sS'provisional'
p3916
I4648
sS'road'
p3917
I4961
sS"mills'"
p3918
I3803
sS'jerusalem'
p3919
I3097
sS"l'alma"
p3920
I3326
sS'jacquelyn'
p3921
I3052
sS'fanatic'
p3922
I2156
sS'striker'
p3923
I5543
sS'hurricanes'
p3924
I2830
sS'gori'
p3925
I2487
sS'pitting'
p3926
I4422
sS'videos'
p3927
I6051
sS'deep'
p3928
I1665
sS'general'
p3929
I2416
sS'leaker'
p3930
I3394
sS'girlfriend'
p3931
I2448
sS'syrian'
p3932
I5637
sS'film'
p3933
I2221
sS'fill'
p3934
I2219
sS'again'
p3935
I350
sS'istanbul'
p3936
I3029
sS'retiring'
p3937
I4901
sS'field'
p3938
I2206
sS'cleanup'
p3939
I1323
sS"l'avenir"
p3940
I3327
sS'prisa'
p3941
I4582
sS'fruitless'
p3942
I2351
sS'brando'
p3943
I963
sS'moenchengladbach'
p3944
I3852
sS'students'
p3945
I5553
sS'important'
p3946
I2885
sS'tackle'
p3947
I5644
sS'prudent'
p3948
I4650
sS'grudge'
p3949
I2551
sS'havana'
p3950
I2639
sS'assets'
p3951
I618
sS'u'
p3952
I5932
sS'kuwait'
p3953
I3318
sS'resolution'
p3954
I4881
sS'represent'
p3955
I4862
sS'colleges'
p3956
I1365
sS'emile'
p3957
I1979
sS'founder'
p3958
I2305
sS'watergate'
p3959
I6139
sS'suburban'
p3960
I5569
sS'sergey'
p3961
I5198
sS'talks'
p3962
I5661
sS'liam'
p3963
I3440
sS'children'
p3964
I1244
sS'nita'
p3965
I4070
sS'rwanda'
p3966
I5041
sS'alberto'
p3967
I399
sS'alberta'
p3968
I398
sS'sehwag'
p3969
I5167
sS'r18'
p3970
I4703
sS'falk'
p3971
I2141
sS'fall'
p3972
I2142
sS'winning'
p3973
I6226
sS'difference'
p3974
I1772
sS'mukasey'
p3975
I3941
sS'syracuse'
p3976
I5635
sS'steve'
p3977
I5504
sS'norfolk'
p3978
I4086
sS'dictatorship'
p3979
I1768
sS'celebrity'
p3980
I1167
sS'saudi'
p3981
I5094
sS'jolesch'
p3982
I3135
sS'20th'
p3983
I160
sS'neighborhood'
p3984
I4026
sS'stegeberg'
p3985
I5493
sS'titles'
p3986
I5801
sS'lawyer'
p3987
I3383
sS'further'
p3988
I2366
sS'cilic'
p3989
I1282
sS'defence'
p3990
I1671
sS'opted'
p3991
I4209
sS'novitiate'
p3992
I4112
sS'abu'
p3993
I280
sS'public'
p3994
I4651
sS'movement'
p3995
I3917
sS'biweekly'
p3996
I871
sS'publisher'
p3997
I4654
sS'search'
p3998
I5142
sS'bible'
p3999
I846
sS'prosecutors'
p4000
I4633
sS'jackie'
p4001
I3049
sS'airport'
p4002
I385
sS'published'
p4003
I4653
sS'cystic'
p4004
I1589
sS'alexandria'
p4005
I408
sS'armer'
p4006
I564
sS'africa'
p4007
I346
sS'waldheim'
p4008
I6106
sS'rican'
p4009
I4923
sS'armed'
p4010
I561
sS'bruins'
p4011
I1006
sS'legislator'
p4012
I3415
sS'donaldson'
p4013
I1847
sS'two'
p4014
I5927
sS'paterson'
p4015
I4325
sS'hwee'
p4016
I2836
sS'espanyol'
p4017
I2042
sS'celia'
p4018
I1168
sS'yolanda'
p4019
I6317
sS'landed'
p4020
I3347
sS'lleyton'
p4021
I3498
sS'town'
p4022
I5839
sS'none'
p4023
I4082
sS'hour'
p4024
I2791
sS'remain'
p4025
I4832
sS'del'
p4026
I1683
sS'clergy'
p4027
I1326
sS'abandon'
p4028
I253
sS'dec'
p4029
I1650
sS'refugee'
p4030
I4808
sS'def'
p4031
I1667
sS'aspinall'
p4032
I606
sS'junked'
p4033
I3168
sS'eido'
p4034
I1942
sS'share'
p4035
I5230
sS'pro'
p4036
I4589
sS'numbers'
p4037
I4122
sS'robinson'
p4038
I4970
sS'!'
p4039
I0
sS'needs'
p4040
I4023
sS'uppsala'
p4041
I5984
sS'sacred'
p4042
I5050
sS'siphoned'
p4043
I5319
sS'redwood'
p4044
I4798
sS'advice'
p4045
I338
sS'knievel'
p4046
I3272
sS'blood'
p4047
I889
sS'faculty'
p4048
I2132
sS'bloom'
p4049
I890
sS'ligger'
p4050
I3452
sS'malouda'
p4051
I3618
sS'coal'
p4052
I1350
sS'responsibility'
p4053
I4888
sS'shinseki'
p4054
I5253
sS'playing'
p4055
I4445
sS'ieng'
p4056
I2853
sS'kemusu'
p4057
I3215
sS'infant'
p4058
I2927
sS'azerbaijan'
p4059
I689
sS'lewine'
p4060
I3435
sS'rounder'
p4061
I5011
sS'industrial'
p4062
I2925
sS'through'
p4063
I5776
sS'same'
p4064
I5072
sS'documents'
p4065
I1833
sS'winger'
p4066
I6223
sS'24'
p4067
I166
sS'25'
p4068
I168
sS'26'
p4069
I170
sS'27'
p4070
I172
sS'20'
p4071
I144
sS'21'
p4072
I161
sS'22'
p4073
I164
sS'23'
p4074
I165
sS'28'
p4075
I173
sS'29'
p4076
I174
sS'peng'
p4077
I4348
sS'dolly'
p4078
I1839
sS'nhl'
p4079
I4053
sS'penh'
p4080
I4349
sS'walla'
p4081
I6111
sS'toothy'
p4082
I5818
sS'hurting'
p4083
I2832
sS'good'
p4084
I2480
sS'yangon'
p4085
I6298
sS'seeking'
p4086
I5162
sS'primary'
p4087
I4573
sS'walls'
p4088
I6113
sS'oxford'
p4089
I4261
sS'stepped'
p4090
I5500
sS'association'
p4091
I622
sS'easily'
p4092
I1914
sS'pregnant'
p4093
I4543
sS'hails'
p4094
I2587
sS'eleanor'
p4095
I1951
sS'connolly'
p4096
I1455
sS'rhys'
p4097
I4919
sS'saloons'
p4098
I5065
sS'joburg'
p4099
I3125
sS'everyone'
p4100
I2074
sS'house'
p4101
I2793
sS'hard'
p4102
I2614
sS'monks'
p4103
I3871
sS'extended'
p4104
I2108
sS'countrymen'
p4105
I1528
sS'berea'
p4106
I820
sS'randolph'
p4107
I4739
sS'perry'
p4108
I4367
sS'funding'
p4109
I2363
sS'quincy'
p4110
I4696
sS'studying'
p4111
I5558
sS'participants'
p4112
I4307
sS'longtime'
p4113
I3517
sS'stridently'
p4114
I5541
sS'mikhail'
p4115
I3790
sS'extraordinary'
p4116
I2114
sS'members'
p4117
I3742
sS'backed'
p4118
I699
sS'titone'
p4119
I5802
sS'beginning'
p4120
I783
sS'benefits'
p4121
I814
sS'prophet'
p4122
I4628
sS'finland'
p4123
I2233
sS'coulter'
p4124
I1520
sS'copper'
p4125
I1501
sS'valentino'
p4126
I6011
sS'juncture'
p4127
I3164
sS'reservists'
p4128
I4874
sS'heights'
p4129
I2672
sS'twenty'
p4130
I5923
sS'revive'
p4131
I4913
sS'militant'
p4132
I3796
sS'statement'
p4133
I5480
sS'ramzi'
p4134
I4737
sS'park'
p4135
I4302
sS'duenas'
p4136
I1892
sS'part'
p4137
I4306
sS'colo'
p4138
I1366
sS'doctors'
p4139
I1832
sS'believe'
p4140
I799
sS'b'
p4141
I692
sS'largely'
p4142
I3356
sS'recording'
p4143
I4789
sS'treated'
p4144
I5869
sS'nominee'
p4145
I4080
sS'philippine'
p4146
I4388
sS'meltdown'
p4147
I3739
sS'aged'
p4148
I354
sS'fading'
p4149
I2133
sS'porush'
p4150
I4506
sS'mountain'
p4151
I3908
sS'dancing'
p4152
I1609
sS'gorbachev'
p4153
I2485
sS'majority'
p4154
I3605
sS'build'
p4155
I1021
sS'province'
p4156
I4647
sS'dayton'
p4157
I1633
sS'most'
p4158
I3897
sS'charm'
p4159
I1216
sS'engagements'
p4160
I2003
sS'groues'
p4161
I2544
sS'ki'
p4162
I3236
sS'humanitarian'
p4163
I2818
sS'chester'
p4164
I1235
sS'ku'
p4165
I3308
sS'ky'
p4166
I3321
sS'joining'
p4167
I3133
sS'thomas'
p4168
I5767
sS'particularly'
p4169
I4311
sS'rebels'
p4170
I4775
sS'swelling'
p4171
I5621
sS'businesses'
p4172
I1045
sS'fine'
p4173
I2228
sS'find'
p4174
I2226
sS'giant'
p4175
I2437
sS'dividing'
p4176
I1816
sS'waiting'
p4177
I6105
sS'dysfunctional'
p4178
I1902
sS'8'
p4179
I235
sS'kabila'
p4180
I3177
sS'yingying'
p4181
I6315
sS'viipuri'
p4182
I6062
sS'courage'
p4183
I1533
sS'meir'
p4184
I3733
sS'resolve'
p4185
I4882
sS'motorcycles'
p4186
I3905
sS'mcculloch'
p4187
I3706
sS'garcia'
p4188
I2390
sS'common'
p4189
I1398
sS'individual'
p4190
I2921
sS'leslie'
p4191
I3423
sS'surrendered'
p4192
I5603
sS'nouri'
p4193
I4104
sS'visiting'
p4194
I6077
sS'electoral'
p4195
I1956
sS'goldwater'
p4196
I2475
sS'toledo'
p4197
I5811
sS'gabon'
p4198
I2372
sS'burned'
p4199
I1034
sS'donate'
p4200
I1848
sS'nashville'
p4201
I3990
sS'ike'
p4202
I2860
sS'broughton'
p4203
I1000
sS'mamadouba'
p4204
I3619
sS'sultan'
p4205
I5585
sS'annual'
p4206
I504
sS'foreign'
p4207
I2291
sS'baltimore'
p4208
I719
sS'ehud'
p4209
I1941
sS'bongo'
p4210
I922
sS'point'
p4211
I4463
sS'fashion'
p4212
I2166
sS'gavin'
p4213
I2406
sS'ravaged'
p4214
I4754
sS'helms'
p4215
I2681
sS'rasim'
p4216
I4747
sS'rivals'
p4217
I4956
sS'secret'
p4218
I5152
sS'ireland'
p4219
I3008
sS'laos'
p4220
I3354
sS'meeting'
p4221
I3730
sS'ukraine'
p4222
I5939
sS'gay'
p4223
I2408
sS'gas'
p4224
I2399
sS'fayed'
p4225
I2172
sS'resister'
p4226
I4880
sS'prices'
p4227
I4568
sS'kalmar'
p4228
I3184
sS'gambari'
p4229
I2379
sS'replaces'
p4230
I4854
sS'awja'
p4231
I684
sS'bill'
p4232
I857
sS'holocaust'
p4233
I2749
sS'fun'
p4234
I2359
sS'almaty'
p4235
I433
sS'solis'
p4236
I5374
sS'ivorian'
p4237
I3041
sS'portugal'
p4238
I4505
sS'century'
p4239
I1174
sS'lumbini'
p4240
I3556
sS'imperialism'
p4241
I2882
sS'stubbornly'
p4242
I5551
sS'vladikavkaz'
p4243
I6083
sS'mantovani'
p4244
I3634
sS'italy'
p4245
I3034
sS'butcher'
p4246
I1051
sS'textile'
p4247
I5728
sS'vaclav'
p4248
I6009
sS'pheidippides'
p4249
I4382
sS'fibrosis'
p4250
I2203
sS'development'
p4251
I1752
sS'forced'
p4252
I2287
sS'yesterday'
p4253
I6311
sS'moment'
p4254
I3860
sS'barbour'
p4255
I738
sS'celebratory'
p4256
I1166
sS'toit'
p4257
I5807
sS'beanie'
p4258
I769
sS'task'
p4259
I5675
sS'laden'
p4260
I3332
sS'spent'
p4261
I5429
sS'unannounced'
p4262
I5948
sS'flags'
p4263
I2251
sS'withdraw'
p4264
I6233
sS'y'
p4265
I6293
sS'organization'
p4266
I4217
sS'chemistry'
p4267
I1228
sS'hastings'
p4268
I2633
sS'vashem'
p4269
I6022
sS'snow'
p4270
I5357
sS'fundamentalists'
p4271
I2361
sS'shape'
p4272
I5229
sS'atomic'
p4273
I633
sS'credentials'
p4274
I1549
sS'ad'
p4275
I313
sS'discipline'
p4276
I1795
sS'cup'
p4277
I1578
sS'zurich'
p4278
I6354
sS'source'
p4279
I5401
sS'impoverished'
p4280
I2887
sS'luncheonette'
p4281
I3557
sS'sensational'
p4282
I5184
sS'big'
p4283
I852
sS'bid'
p4284
I849
sS'bia'
p4285
I843
sS'bit'
p4286
I870
sS'competitively'
p4287
I1412
sS'coalinga'
p4288
I1351
sS'sakharov'
p4289
I5060
sS'follows'
p4290
I2281
sS'bensonhurst'
p4291
I818
sS'spokeswoman'
p4292
I5437
sS'cherkessia'
p4293
I1231
sS'google'
p4294
I2483
sS'often'
p4295
I4165
sS'absolutely'
p4296
I278
sS'abundantly'
p4297
I281
sS'back'
p4298
I698
sS'bach'
p4299
I696
sS'extremist'
p4300
I2115
sS'strongest'
p4301
I5545
sS'lightning'
p4302
I3455
sS'pronounced'
p4303
I4620
sS'scale'
p4304
I5102
sS'pet'
p4305
I4378
sS'piombo'
p4306
I4417
sS'newark'
p4307
I4042
sS'bogut'
p4308
I908
sS'scofield'
p4309
I5124
sS'saad'
p4310
I5045
sS'commentator'
p4311
I1388
sS'300'
p4312
I177
sS'goma'
p4313
I2476
sS'costumes'
p4314
I1517
sS'effusive'
p4315
I1938
sS'chanting'
p4316
I1200
sS'flanks'
p4317
I2253
sS'bullivant'
p4318
I1025
sS'feb'
p4319
I2181
sS'kozlov'
p4320
I3301
sS'bollore'
p4321
I913
sS'yorba'
p4322
I6319
sS'truck'
p4323
I5893
sS'drama'
p4324
I1868
sS'goode'
p4325
I2481
sS'medallist'
p4326
I3719
sS'brozman'
p4327
I1004
sS'martinez'
p4328
I3668
sS'benares'
p4329
I810
sS'lesson'
p4330
I3425
sS'ontario'
p4331
I4193
sS'dalai'
p4332
I1597
sS'mccartney'
p4333
I3705
sS'forward'
p4334
I2300
sS'immigration'
p4335
I2879
sS'hoped'
p4336
I2770
sS'khamenei'
p4337
I3233
sS'boys'
p4338
I956
sS'hopes'
p4339
I2772
sS'directed'
p4340
I1786
sS'driveways'
p4341
I1879
sS"'re"
p4342
I6
sS'autonomous'
p4343
I672
sS'curb'
p4344
I1579
sS'cafe'
p4345
I1063
sS'burgard'
p4346
I1029
sS'gainesville'
p4347
I2374
sS'200m'
p4348
I156
sS'assassinate'
p4349
I609
sS'abdoulaye'
p4350
I261
sS'papa'
p4351
I4293
sS'prepared'
p4352
I4547
sS'restoration'
p4353
I4891
sS'prepares'
p4354
I4548
sS'abidin'
p4355
I268
sS'trofimov'
p4356
I5886
sS'2002'
p4357
I148
sS'2003'
p4358
I149
sS'2000'
p4359
I146
sS'2001'
p4360
I147
sS'2006'
p4361
I152
sS'2007'
p4362
I153
sS'2004'
p4363
I150
sS'rallies'
p4364
I4729
sS'delft'
p4365
I1692
sS'olofson'
p4366
I4181
sS'2008'
p4367
I154
sS'2009'
p4368
I155
sS'minors'
p4369
I3817
sS'zawinul'
p4370
I6340
sS'amersfoort'
p4371
I456
sS'westwood'
p4372
I6181
sS'graves'
p4373
I2522
sS'intensive'
p4374
I2972
sS'critical'
p4375
I1559
sS'starter'
p4376
I5476
sS'maryland'
p4377
I3675
sS'brigade'
p4378
I980
sS'proctor'
p4379
I4595
sS'ophelie'
p4380
I4203
sS'huddled'
p4381
I2813
sS'ankara'
p4382
I492
sS'putting'
p4383
I4672
sS'subservient'
p4384
I5566
sS'surgeon'
p4385
I5599
sS'clement'
p4386
I1325
sS'rosenzweig'
p4387
I5002
sS'knife'
p4388
I3273
sS'mobilize'
p4389
I3845
sS'mclouth'
p4390
I3709
sS'ceasefire'
p4391
I1160
sS'joey'
p4392
I3127
sS'crow'
p4393
I1567
sS'clive'
p4394
I1336
sS'demonstrations'
p4395
I1707
sS'pkk'
p4396
I4425
sS'copenhagen'
p4397
I1499
sS'kuomintang'
p4398
I3313
sS'carlo'
p4399
I1128
sS'depression'
p4400
I1720
sS'chicago'
p4401
I1238
sS'giving'
p4402
I2455
sS'falcons'
p4403
I2140
sS'access'
p4404
I285
sS'body'
p4405
I904
sS'exchange'
p4406
I2083
sS'peggy'
p4407
I4343
sS'bachelor'
p4408
I697
sS'healing'
p4409
I2658
sS'others'
p4410
I4234
sS'luis'
p4411
I3555
sS'remark'
p4412
I4836
sS'talent'
p4413
I5657
sS'ravanelli'
p4414
I4755
sS'cera'
p4415
I1175
sS'33'
p4416
I181
sS'32'
p4417
I180
sS'31'
p4418
I178
sS'30'
p4419
I176
sS'37'
p4420
I187
sS'alaska'
p4421
I393
sS'35'
p4422
I185
sS'34'
p4423
I182
sS'honor'
p4424
I2764
sS'named'
p4425
I3981
sS'presidents'
p4426
I4556
sS'private'
p4427
I4587
sS'gordon'
p4428
I2486
sS'names'
p4429
I3982
sS'lima'
p4430
I3462
sS'nobel'
p4431
I4076
sS'chu'
p4432
I1270
sS'themselves'
p4433
I5744
sS'defendant'
p4434
I1673
sS'assailed'
p4435
I608
sS'basmanny'
p4436
I755
sS'train'
p4437
I5854
sS'iii'
p4438
I2859
sS'f'
p4439
I2119
sS'tunnel'
p4440
I5910
sS'blacksburg'
p4441
I875
sS'crocker'
p4442
I1565
sS'native'
p4443
I4001
sS'lama'
p4444
I3343
sS'hensley'
p4445
I2692
sS'democracy'
p4446
I1702
sS'noises'
p4447
I4078
sS'boxing'
p4448
I951
sS'hampshire'
p4449
I2598
sS'regions'
p4450
I4816
sS'forest'
p4451
I2292
sS'vonnegut'
p4452
I6094
sS'profile'
p4453
I4604
sS'act'
p4454
I303
sS'leukemia'
p4455
I3430
sS'collection'
p4456
I1362
sS'legality'
p4457
I3410
sS'dominici'
p4458
I1844
sS'twofer'
p4459
I5928
sS'klan'
p4460
I3265
sS'tibbets'
p4461
I5780
sS'fray'
p4462
I2330
sS'l'
p4463
I3325
sS'lines'
p4464
I3470
sS'taubenberger'
p4465
I5680
sS'chief'
p4466
I1240
sS'alito'
p4467
I414
sS'gogh'
p4468
I2468
sS'austrian'
p4469
I664
sS'negotiated'
p4470
I4024
sS'le'
p4471
I3385
sS'la'
p4472
I3329
sS'taboos'
p4473
I5642
sS'tsang'
p4474
I5900
sS'll'
p4475
I3496
sS'acres'
p4476
I301
sS'hariri'
p4477
I2620
sS'criminal'
p4478
I1554
sS'extradition'
p4479
I2113
sS'voghera'
p4480
I6086
sS'cutting'
p4481
I1586
sS'mandate'
p4482
I3625
sS'insisting'
p4483
I2950
sS'day'
p4484
I1630
sS'remington'
p4485
I4843
sS'michaela'
p4486
I3774
sS'warned'
p4487
I6125
sS'identified'
p4488
I2850
sS'belgrade'
p4489
I797
sS'salesman'
p4490
I5061
sS'ouma'
p4491
I4238
sS'rev'
p4492
I4907
sS'mate'
p4493
I3689
sS'arkansas'
p4494
I560
sS'prather'
p4495
I4537
sS'postpone'
p4496
I4519
sS'red'
p4497
I4792
sS'harold'
p4498
I2623
sS'jessica'
p4499
I3099
sS'goucher'
p4500
I2490
sS'frank'
p4501
I2322
sS'lajos'
p4502
I3339
sS'symbolise'
p4503
I5632
sS'sprinters'
p4504
I5448
sS'quo'
p4505
I4699
sS'allies'
p4506
I426
sS'seon'
p4507
I5189
sS'baabda'
p4508
I693
sS'south'
p4509
I5403
sS'finest'
p4510
I2229
sS'namhong'
p4511
I3983
sS'franks'
p4512
I2325
sS'calderon'
p4513
I1067
sS'reached'
p4514
I4765
sS'radek'
p4515
I4712
sS'ancient'
p4516
I474
sS'monkey'
p4517
I3870
sS'bologna'
p4518
I914
sS'roche'
p4519
I4973
sS'pakistani'
p4520
I4282
sS'georgetown'
p4521
I2425
sS'bialystok'
p4522
I844
sS'unending'
p4523
I5961
sS'knowles'
p4524
I3278
sS'loved'
p4525
I3538
sS'bodyguard'
p4526
I905
sS'asean'
p4527
I596
sS'sweden'
p4528
I5618
sS'visited'
p4529
I6076
sS'doctorate'
p4530
I1831
sS'hagen'
p4531
I2584
sS'tupelo'
p4532
I5911
sS'hagel'
p4533
I2583
sS'sevilla'
p4534
I5218
sS'corrupt'
p4535
I1508
sS'have'
p4536
I2640
sS'dallas'
p4537
I1601
sS'mid'
p4538
I3778
sS'parks'
p4539
I4304
sS'montgomery'
p4540
I3875
sS'concerns'
p4541
I1427
sS'mit'
p4542
I3833
sS'arpino'
p4543
I574
sS'unless'
p4544
I5973
sS'lugovoi'
p4545
I3554
sS'skopje'
p4546
I5333
sS'eight'
p4547
I1943
sS'stoddard'
p4548
I5513
sS'calleri'
p4549
I1074
sS'enthusiastic'
p4550
I2017
sS'gather'
p4551
I2402
sS'noppawan'
p4552
I4084
sS'disease'
p4553
I1802
sS'occasion'
p4554
I4144
sS'skinny'
p4555
I5331
sS'medvedev'
p4556
I3727
sS'selection'
p4557
I5171
sS'charles'
p4558
I1212
sS'hamlet'
p4559
I2597
sS'rebuke'
p4560
I4776
sS'staff'
p4561
I5456
sS'bernard'
p4562
I828
sS'communist'
p4563
I1401
sS'regularly'
p4564
I4818
sS'beat'
p4565
I772
sS'unbeatable'
p4566
I5949
sS'reputations'
p4567
I4870
sS'drawn'
p4568
I1869
sS'richards'
p4569
I4929
sS'kazakhstan'
p4570
I3209
sS'mcnair'
p4571
I3710
sS'hardwick'
p4572
I2618
sS'calling'
p4573
I1075
sS'salzburg'
p4574
I5068
sS'mercedes'
p4575
I3757
sS'including'
p4576
I2902
sS'gibson'
p4577
I2439
sS'looks'
p4578
I3520
sS'enhances'
p4579
I2008
sS'national'
p4580
I3996
sS'intensity'
p4581
I2971
sS'greece'
p4582
I2527
sS'benneteau'
p4583
I817
sS'madras'
p4584
I3585
sS'reform'
p4585
I4806
sS'laureate'
p4586
I3370
sS'ralph'
p4587
I4731
sS'ashkenazi'
p4588
I598
sS'wembley'
p4589
I6170
sS'colombian'
p4590
I1368
sS'maddon'
p4591
I3581
sS'toting'
p4592
I5826
sS'taking'
p4593
I5654
sS'luftwaffe'
p4594
I3553
sS'pulp'
p4595
I4660
sS'kosher'
p4596
I3296
sS'assure'
p4597
I624
sS'comment'
p4598
I1387
sS'lofton'
p4599
I3509
sS'greenacres'
p4600
I2531
sS'copies'
p4601
I1500
sS'chraibi'
p4602
I1263
sS'attends'
p4603
I644
sS'gaza'
p4604
I2409
sS'phosphorescent'
p4605
I4395
sS'ramallah'
p4606
I4732
sS'grappelli'
p4607
I2518
sS'462'
p4608
I197
sS'finished'
p4609
I2230
sS'bull'
p4610
I1023
sS'fellow'
p4611
I2192
sS'iswaran'
p4612
I3030
sS'lebanese'
p4613
I3402
sS'defining'
p4614
I1678
sS'appearance'
p4615
I525
sS'darman'
p4616
I1619
sS'augusta'
p4617
I659
sS'stalin'
p4618
I5461
sS'keflezighi'
p4619
I3212
sS'almost'
p4620
I434
sS'seniat'
p4621
I5181
sS'respected'
p4622
I4885
sS'claimed'
p4623
I1304
sS'partner'
p4624
I4313
sS'inspector'
p4625
I2952
sS'administration'
p4626
I323
sS'slammed'
p4627
I5336
sS'eugenia'
p4628
I2056
sS'retter'
p4629
I4902
sS'yanukovych'
p4630
I6300
sS'traille'
p4631
I5853
sS'never'
p4632
I4040
sS'henares'
p4633
I2688
sS'giuliani'
p4634
I2451
sS'center'
p4635
I1172
sS'antonio'
p4636
I515
sS'wyo'
p4637
I6281
sS'position'
p4638
I4508
sS'soviet'
p4639
I5410
sS'latest'
p4640
I3364
sS'executive'
p4641
I2085
sS'domestic'
p4642
I1842
sS'nicknamed'
p4643
I4056
sS'clinic'
p4644
I1334
sS'seats'
p4645
I5146
sS'dakota'
p4646
I1596
sS'graduate'
p4647
I2503
sS'winchester'
p4648
I6219
sS'lake'
p4649
I3340
sS'add'
p4650
I316
sS'delegations'
p4651
I1691
sS'citizen'
p4652
I1292
sS'adm'
p4653
I322
sS'match'
p4654
I3688
sS'raven'
p4655
I4757
sS'tests'
p4656
I5725
sS'kidney'
p4657
I3240
sS'doyle'
p4658
I1862
sS'resolves'
p4659
I4883
sS'like'
p4660
I3456
sS'success'
p4661
I5572
sS'admitted'
p4662
I325
sS'journalist'
p4663
I3147
sS'works'
p4664
I6261
sS'italian'
p4665
I3033
sS'murlidhar'
p4666
I3951
sS'ashgabat'
p4667
I597
sS'classical'
p4668
I1318
sS'authority'
p4669
I668
sS'tabori'
p4670
I5643
sS'novelist'
p4671
I4107
sS'happens'
p4672
I2611
sS'turkmenistan'
p4673
I5916
sS'garrett'
p4674
I2395
sS'joachim'
p4675
I3121
sS'masked'
p4676
I3677
sS'brigitte'
p4677
I984
sS'prose'
p4678
I4630
sS'host'
p4679
I2784
sS'porbandar'
p4680
I4498
sS'modi'
p4681
I3851
sS'panel'
p4682
I4292
sS'about'
p4683
I274
sS'justin'
p4684
I3172
sS'albanian'
p4685
I395
sS'tomb'
p4686
I5812
sS'amte'
p4687
I464
sS'muamba'
p4688
I3930
sS'dubois'
p4689
I1889
sS'chronic'
p4690
I1269
sS'guard'
p4691
I2556
sS'female'
p4692
I2194
sS'midfielder'
p4693
I3783
sS'jaegerstaetter'
p4694
I3055
sS'quickly'
p4695
I4694
sS'1986'
p4696
I128
sS'1987'
p4697
I129
sS'1984'
p4698
I127
sS'1982'
p4699
I126
sS'1980'
p4700
I123
sS'rushed'
p4701
I5034
sS'firefighter'
p4702
I2239
sS'1988'
p4703
I130
sS'1989'
p4704
I131
sS'biggest'
p4705
I853
sS'ivory'
p4706
I3042
sS'buy'
p4707
I1055
sS'rodger'
p4708
I4983
sS'bus'
p4709
I1042
sS'but'
p4710
I1049
sS'repeated'
p4711
I4850
sS'memphis'
p4712
I3749
sS'bug'
p4713
I1020
sS'lynn'
p4714
I3569
sS'princes'
p4715
I4576
sS'dangerous'
p4716
I1612
sS'j'
p4717
I3045
sS'seif'
p4718
I5168
sS'nedra'
p4719
I4022
sS'supreme'
p4720
I5596
sS'pio'
p4721
I4416
sS'recounts'
p4722
I4790
sS'romney'
p4723
I4993
sS'periods'
p4724
I4363
sS'83'
p4725
I238
sS'paraguay'
p4726
I4296
sS'commentators'
p4727
I1389
sS'shooting'
p4728
I5262
sS'haider'
p4729
I2585
sS'46'
p4730
I196
sS'47'
p4731
I198
sS'44'
p4732
I194
sS'45'
p4733
I195
sS'42'
p4734
I193
sS'sleiman'
p4735
I5343
sS'40'
p4736
I190
sS'nelson'
p4737
I4030
sS'convicts'
p4738
I1494
sS'philipp'
p4739
I4387
sS'starting'
p4740
I5477
sS'armor'
p4741
I567
sS'limited'
p4742
I3464
sS'smithies'
p4743
I5352
sS'koubek'
p4744
I3300
sS'sergei'
p4745
I5197
sS'hats'
p4746
I2637
sS'chaos'
p4747
I1201
sS'sleep'
p4748
I5342
sS'hate'
p4749
I2636
sS'sanford'
p4750
I5079
sS'flannery'
p4751
I2254
sS'paris'
p4752
I4301
sS'daley'
p4753
I1599
sS'340'
p4754
I183
sS'343'
p4755
I184
sS'honorific'
p4756
I2766
sS'pride'
p4757
I4570
sS'merchant'
p4758
I3758
sS'risk'
p4759
I4953
sS'rise'
p4760
I4951
sS'toivonen'
p4761
I5808
sS'every'
p4762
I2073
sS'jack'
p4763
I3048
sS'evers'
p4764
I2072
sS'litvinenko'
p4765
I3486
sS'school'
p4766
I5112
sS'cause'
p4767
I1156
sS'guiding'
p4768
I2562
sS'venus'
p4769
I6032
sS'enjoy'
p4770
I2009
sS'bicycle'
p4771
I848
sS'leaders'
p4772
I3388
sS'excelled'
p4773
I2082
sS'request'
p4774
I4871
sS'disciplined'
p4775
I1796
sS'persuade'
p4776
I4373
sS'kivu'
p4777
I3263
sS'blue'
p4778
I895
sS'hide'
p4779
I2709
sS'ruben'
p4780
I5016
sS'beaten'
p4781
I773
sS'liberty'
p4782
I3445
sS'kuo'
p4783
I3312
sS'seeks'
p4784
I5163
sS'kicked'
p4785
I3238
sS'ramps'
p4786
I4735
sS'hundreds'
p4787
I2824
sS'pate'
p4788
I4324
sS'martti'
p4789
I3670
sS'arroyo'
p4790
I582
sS'generals'
p4791
I2417
sS'leaves'
p4792
I3400
sS'changed'
p4793
I1197
sS'analysts'
p4794
I469
sS'chateau'
p4795
I1217
sS'changes'
p4796
I1198
sS'punishment'
p4797
I4662
sS'julio'
p4798
I3160
sS'amherst'
p4799
I457
sS'would'
p4800
I6267
sS'hospital'
p4801
I2781
sS'zindove'
p4802
I6348
sS'noting'
p4803
I4102
sS'assessment'
p4804
I617
sS'turin'
p4805
I5912
sS'phone'
p4806
I4393
sS'connecticut'
p4807
I1453
sS'varsity'
p4808
I6020
sS'casualties'
p4809
I1149
sS'mufulira'
p4810
I3935
sS'stade'
p4811
I5454
sS'join'
p4812
I3131
sS'terkel'
p4813
I5714
sS'dodd'
p4814
I1834
sS'holtzberg'
p4815
I2750
sS'yudhoyono'
p4816
I6333
sS'mo'
p4817
I3842
sS'entertained'
p4818
I2015
sS'mp'
p4819
I3924
sS'henry'
p4820
I2691
sS'ernest'
p4821
I2034
sS'my'
p4822
I3969
sS'route'
p4823
I5012
sS'shook'
p4824
I5261
sS'estate'
p4825
I2046
sS'jetliner'
p4826
I3103
sS'times'
p4827
I5791
sS'attract'
p4828
I647
sS'guarantee'
p4829
I2555
sS'ceremony'
p4830
I1176
sS'end'
p4831
I1993
sS'eng'
p4832
I2001
sS'lantos'
p4833
I3352
sS'accusations'
p4834
I294
sS'widespread'
p4835
I6204
sS'badly'
p4836
I706
sS'description'
p4837
I1730
sS'ambassadors'
p4838
I450
sS'adrian'
p4839
I331
sS'danny'
p4840
I1616
sS'amid'
p4841
I458
sS'siecle'
p4842
I5290
sS'acknowledged'
p4843
I300
sS'aloud'
p4844
I439
sS'harlem'
p4845
I2621
sS'theme'
p4846
I5743
sS'shalgam'
p4847
I5223
sS'over'
p4848
I4249
sS'london'
p4849
I3512
sS'quarterbacks'
p4850
I4687
sS'entrances'
p4851
I2020
sS'counterterrorism'
p4852
I1525
sS'edith'
p4853
I1925
sS'writing'
p4854
I6276
sS'406'
p4855
I192
sS'400'
p4856
I191
sS'iowa'
p4857
I2999
sS'diseases'
p4858
I1803
sS'tourism'
p4859
I5833
sS'netherlands'
p4860
I4037
sS'chuck'
p4861
I1272
sS'detroit'
p4862
I1747
sS'steelworkers'
p4863
I5490
sS'victory'
p4864
I6049
sS'lauer'
p4865
I3368
sS'each'
p4866
I1905
sS'signing'
p4867
I5296
sS'diana'
p4868
I1763
sS'practising'
p4869
I4531
sS'saturday'
p4870
I5092
sS'gon'
p4871
I2477
sS'driving'
p4872
I1880
sS'although'
p4873
I444
sS'god'
p4874
I2465
sS'matar'
p4875
I3687
sS'laid'
p4876
I3338
sS'gutierrez'
p4877
I2573
sS'nyeko'
p4878
I4130
sS'got'
p4879
I2488
sS'gov'
p4880
I2492
sS'gop'
p4881
I2484
sS'independence'
p4882
I2909
sS'scopes'
p4883
I5125
sS'arizona'
p4884
I557
sS'shaukat'
p4885
I5236
sS'free'
p4886
I2334
sS'bouyed'
p4887
I947
sS'wanted'
p4888
I6120
sS'immigrated'
p4889
I2878
sS'katoucha'
p4890
I3207
sS'harpist'
p4891
I2624
sS'suburb'
p4892
I5568
sS'days'
p4893
I1632
sS'onto'
p4894
I4194
sS'inspectors'
p4895
I2953
sS'already'
p4896
I440
sS'attractions'
p4897
I648
sS'encouraging'
p4898
I1992
sS'hearing'
p4899
I2661
sS'euro15'
p4900
I2058
sS'adopted'
p4901
I329
sS'euro10'
p4902
I2057
sS'titled'
p4903
I5800
sS'insisted'
p4904
I2949
sS'desai'
p4905
I1725
sS'top'
p4906
I5819
sS'fiction'
p4907
I2204
sS'too'
p4908
I5816
sS'gransee'
p4909
I2514
sS'urban'
p4910
I5987
sS'ceiling'
p4911
I1164
sS'murder'
p4912
I3949
sS'estrada'
p4913
I2048
sS'wilders'
p4914
I6210
sS'serve'
p4915
I5203
sS'took'
p4916
I5817
sS'western'
p4917
I6179
sS'1979'
p4918
I122
sS'150mn'
p4919
I29
sS'immigrants'
p4920
I2877
sS'tourists'
p4921
I5835
sS'hamidi'
p4922
I2595
sS'flame'
p4923
I2252
sS'bridge'
p4924
I976
sS'heymans'
p4925
I2706
sS'humble'
p4926
I2820
sS'ran'
p4927
I4738
sS'raj'
p4928
I4728
sS'wiltord'
p4929
I6217
sS'botswana'
p4930
I942
sS'ray'
p4931
I4759
sS'kadima'
p4932
I3181
sS'1968'
p4933
I115
sS'1969'
p4934
I116
sS'baldev'
p4935
I716
sS'1965'
p4936
I112
sS'1966'
p4937
I113
sS'1967'
p4938
I114
sS'1961'
p4939
I109
sS'1962'
p4940
I110
sS'1963'
p4941
I111
sS'tsung'
p4942
I5902
sS'though'
p4943
I5770
sS'sethi'
p4944
I5209
sS'unorthodox'
p4945
I5974
sS'alabama'
p4946
I391
sS'peers'
p4947
I4342
sS'devastating'
p4948
I1749
sS'flow'
p4949
I2268
sS'yang'
p4950
I6297
sS'agnes'
p4951
I363
sS'queen'
p4952
I4689
sS'pops'
p4953
I4494
sS'radio'
p4954
I4716
sS'earth'
p4955
I1911
sS'appealed'
p4956
I524
sS'florent'
p4957
I2265
sS'minnesota'
p4958
I3815
sS'announce'
p4959
I501
sS'oct'
p4960
I4150
sS'waltz'
p4961
I6117
sS'kaka'
p4962
I3183
sS'watch'
p4963
I6136
sS'criticized'
p4964
I1563
sS'amazon'
p4965
I448
sS'despite'
p4966
I1736
sS'report'
p4967
I4857
sS'countries'
p4968
I1526
sS'twice'
p4969
I5924
sS'shots'
p4970
I5272
sS'lavrov'
p4971
I3374
sS'thanks'
p4972
I5732
sS'nur'
p4973
I4123
sS'1960s'
p4974
I108
sS'mahmoud'
p4975
I3595
sS'ayako'
p4976
I686
sS'capacity'
p4977
I1103
sS'approach'
p4978
I531
sS'discovery'
p4979
I1797
sS'adding'
p4980
I318
sS'deposed'
p4981
I1719
sS'weak'
p4982
I6149
sS'however'
p4983
I2802
sS'bojaxhiu'
p4984
I910
sS'southeast'
p4985
I5404
sS'news'
p4986
I4044
sS'sipped'
p4987
I5320
sS'faced'
p4988
I2125
sS'protect'
p4989
I4636
sS'meredith'
p4990
I3760
sS'participating'
p4991
I4310
sS'players'
p4992
I4444
sS'lahoud'
p4993
I3336
sS'games'
p4994
I2382
sS'faces'
p4995
I2126
sS'whampoa'
p4996
I6184
sS'standings'
p4997
I5467
sS'civilians'
p4998
I1299
sS'trust'
p4999
I5897
sS'hitler'
p5000
I2734
sS'conference'
p5001
I1436
sS'faltering'
p5002
I2148
sS'ndola'
p5003
I4014
sS'been'
p5004
I779
sS'blower'
p5005
I893
sS'beneficiary'
p5006
I813
sS'schobert'
p5007
I5110
sS'beer'
p5008
I780
sS'expected'
p5009
I2092
sS'teenager'
p5010
I5694
sS'eskander'
p5011
I2041
sS'waterbury'
p5012
I6138
sS'qaswarah'
p5013
I4679
sS'fallon'
p5014
I2144
sS'kentucky'
p5015
I3221
sS'n'
p5016
I3973
sS'lesser'
p5017
I3424
sS'rutgers'
p5018
I5038
sS'anatoly'
p5019
I473
sS'experts'
p5020
I2097
sS'reburial'
p5021
I4777
sS'utilitarian'
p5022
I6003
sS'inventory'
p5023
I2992
sS'amman'
p5024
I459
sS'several'
p5025
I5216
sS'satellite'
p5026
I5091
sS'theodore'
p5027
I5748
sS'social'
p5028
I5364
sS'greeted'
p5029
I2535
sS'raza'
p5030
I4761
sS'characters'
p5031
I1204
sS'postmark'
p5032
I4517
sS'guayaquil'
p5033
I2559
sS'mussoorie'
p5034
I3962
sS'arab'
p5035
I534
sS'shortly'
p5036
I5269
sS'charlie'
p5037
I1214
sS'fusion'
p5038
I2367
sS'ocean'
p5039
I4149
sS'goetschl'
p5040
I2466
sS'greatest'
p5041
I2526
sS'detained'
p5042
I1741
sS'mother'
p5043
I3900
sS'jean'
p5044
I3082
sS'burrell'
p5045
I1037
sS'proposed'
p5046
I4629
sS'wholesaler'
p5047
I6198
sS'councilman'
p5048
I1522
sS'burns'
p5049
I1036
sS'brigham'
p5050
I982
sS'ela'
p5051
I1948
sS'haefliger'
p5052
I2582
sS'rumor'
p5053
I5025
sS'humanity'
p5054
I2819
sS'hermitage'
p5055
I2700
sS'breaks'
p5056
I972
sS'sussex'
p5057
I5612
sS'paratrooper'
p5058
I4297
sS'cultural'
p5059
I1577
sS'judge'
p5060
I3155
sS'appearing'
p5061
I527
sS'banda'
p5062
I723
sS'advanced'
p5063
I334
sS'59'
p5064
I213
sS'58'
p5065
I212
sS'gift'
p5066
I2441
sS'55'
p5067
I208
sS'54'
p5068
I206
sS'57'
p5069
I210
sS'56'
p5070
I209
sS'51'
p5071
I203
sS'50'
p5072
I200
sS'53'
p5073
I205
sS'52'
p5074
I204
sS'offices'
p5075
I4162
sS'officer'
p5076
I4160
sS'hung'
p5077
I2825
sS'alatas'
p5078
I394
sS'orlando'
p5079
I4223
sS'taguatinga'
p5080
I5646
sS'jennifer'
p5081
I3089
sS'malaysia'
p5082
I3610
sS'donald'
p5083
I1846
sS'usher'
p5084
I5997
sS'election'
p5085
I1954
sS'indirect'
p5086
I2920
sS'intellect'
p5087
I2965
sS'cooper'
p5088
I1496
sS'icc'
p5089
I2847
sS'zionism'
p5090
I6349
sS'musharraf'
p5091
I3957
sS'cnn'
p5092
I1343
sS'maliki'
p5093
I3615
sS'tht'
p5094
I5778
sS'hsu'
p5095
I2806
sS'cory'
p5096
I1511
sS'qingdao'
p5097
I4681
sS'meyer'
p5098
I3769
sS'endorsing'
p5099
I1998
sS'attacks'
p5100
I638
sS'dinner'
p5101
I1780
sS'ensure'
p5102
I2012
sS'efforts'
p5103
I1937
sS'sept'
p5104
I5194
sS'osborn'
p5105
I4230
sS'presence'
p5106
I4550
sS'civil'
p5107
I1298
sS'ahn'
p5108
I375
sS'naturalized'
p5109
I4004
sS'accomplishments'
p5110
I290
sS'donated'
p5111
I1849
sS'electorate'
p5112
I1957
sS'rely'
p5113
I4831
sS'transform'
p5114
I5860
sS'ayers'
p5115
I687
sS'virgin'
p5116
I6071
sS'fought'
p5117
I2303
sS'head'
p5118
I2651
sS'liqin'
p5119
I3477
sS'differences'
p5120
I1773
sS'wireless'
p5121
I6230
sS'buckingham'
p5122
I1013
sS'laurent'
p5123
I3371
sS'penal'
p5124
I4346
sS'clezio'
p5125
I1331
sS'peruvian'
p5126
I4375
sS'wealthy'
p5127
I6151
sS'meissonier'
p5128
I3734
sS'acclaimed'
p5129
I287
sS'checa'
p5130
I1220
sS'check'
p5131
I1221
sS'faithful'
p5132
I2139
sS'eerie'
p5133
I1935
sS'tit'
p5134
I5798
sS'whereas'
p5135
I6189
sS'fitzgerald'
p5136
I2248
sS'ne'
p5137
I4015
sS'ng'
p5138
I4051
sS'tim'
p5139
I5788
sS'setting'
p5140
I5210
sS'tie'
p5141
I5781
sS'grasps'
p5142
I2519
sS'phoenix'
p5143
I4392
sS'solana'
p5144
I5371
sS'erping'
p5145
I2037
sS'veach'
p5146
I6026
sS'propelling'
p5147
I4625
sS'djokovic'
p5148
I1822
sS'1807'
p5149
I39
sS'younger'
p5150
I6323
sS'faster'
p5151
I2167
sS'bullet'
p5152
I1024
sS'navel'
p5153
I4007
sS'itar'
p5154
I3035
sS'vietnam'
p5155
I6057
sS'serious'
p5156
I5201
sS'roh'
p5157
I4986
sS'coach'
p5158
I1346
sS'ron'
p5159
I4994
sS'rod'
p5160
I4981
sS'leads'
p5161
I3391
sS'roy'
p5162
I5013
sS'1948'
p5163
I96
sS'1949'
p5164
I97
sS'1942'
p5165
I90
sS'1943'
p5166
I91
sS'1940'
p5167
I87
sS'1941'
p5168
I89
sS'1946'
p5169
I94
sS'1947'
p5170
I95
sS'1944'
p5171
I92
sS'1945'
p5172
I93
sS'environment'
p5173
I2023
sS'rawalpindi'
p5174
I4758
sS'charge'
p5175
I1206
sS'overwrought'
p5176
I4256
sS'federation'
p5177
I2185
sS'advantage'
p5178
I335
sS'ginsburg'
p5179
I2445
sS'tubbs'
p5180
I5903
sS'tanks'
p5181
I5665
sS'cook'
p5182
I1495
sS'gambhir'
p5183
I2380
sS'muhib'
p5184
I3940
sS'impressive'
p5185
I2889
sS'level'
p5186
I3431
sS'mikhailichenko'
p5187
I3791
sS'philippines'
p5188
I4389
sS'hawaii'
p5189
I2645
sS'standards'
p5190
I5465
sS'domestically'
p5191
I1843
sS'temile'
p5192
I5701
sS'quick'
p5193
I4693
sS'mastrogiacomo'
p5194
I3686
sS'pork'
p5195
I4499
sS'illustrating'
p5196
I2867
sS'baku'
p5197
I715
sS'colin'
p5198
I1359
sS'sordo'
p5199
I5391
sS'ottoman'
p5200
I4236
sS'port'
p5201
I4500
sS'postman'
p5202
I4516
sS'slaying'
p5203
I5341
sS'water'
p5204
I6137
sS'groups'
p5205
I2547
sS'snubbed'
p5206
I5360
sS'jorn'
p5207
I3142
sS'dublin'
p5208
I1888
sS'proud'
p5209
I4643
sS'mauritius'
p5210
I3697
sS'fabrizio'
p5211
I2123
sS'humour'
p5212
I2822
sS'bemba'
p5213
I807
sS'bafana'
p5214
I708
sS'crisis'
p5215
I1555
sS'trinidad'
p5216
I5880
sS'russell'
p5217
I5035
sS'confounded'
p5218
I1442
sS'athens'
p5219
I628
sS'sports'
p5220
I5438
sS'abbas'
p5221
I255
sS'handler'
p5222
I2603
sS'andy'
p5223
I481
sS'prep'
p5224
I4545
sS'today'
p5225
I5805
sS'plug'
p5226
I4452
sS'lawns'
p5227
I3378
sS'riot'
p5228
I4946
sS'casey'
p5229
I1144
sS'aretha'
p5230
I550
sS'states'
p5231
I5482
sS'julius'
p5232
I3161
sS'thousands'
p5233
I5771
sS'heesters'
p5234
I2668
sS'thalassemia'
p5235
I5730
sS'terrell'
p5236
I5717
sS'indignant'
p5237
I2919
sS'rufus'
p5238
I5020
sS'lighthearted'
p5239
I3454
sS'streak'
p5240
I5533
sS'kyi'
p5241
I3322
sS'nursing'
p5242
I4127
sS'figure'
p5243
I2215
sS'critic'
p5244
I1558
sS'thaworn'
p5245
I5737
sS'dropped'
p5246
I1881
sS'clarksdale'
p5247
I1313
sS'qualifiers'
p5248
I4683
sS'lusaka'
p5249
I3560
sS'swedish'
p5250
I5619
sS'cjones'
p5251
I1301
sS'heras'
p5252
I2694
sS'secured'
p5253
I5156
sS'antoine'
p5254
I513
sS'1'
p5255
I18
sS'vital'
p5256
I6080
sS'cardinal'
p5257
I1117
sS'fourth'
p5258
I2308
sS'endorsement'
p5259
I1997
sS'genocide'
p5260
I2420
sS'springfield'
p5261
I5444
sS'etched'
p5262
I2049
sS'levy'
p5263
I3434
sS'information'
p5264
I2932
sS'granddaughter'
p5265
I2510
sS'islamic'
p5266
I3019
sS'birthday'
p5267
I868
sS'nannies'
p5268
I3987
sS'eighth'
p5269
I1944
sS'classroom'
p5270
I1321
sS'succeeded'
p5271
I5571
sS'marguerite'
p5272
I3652
sS'constituents'
p5273
I1471
sS'mainly'
p5274
I3601
sS'bambang'
p5275
I720
sS'blocked'
p5276
I887
sS'wallace'
p5277
I6112
sS'chips'
p5278
I1250
sS'civic'
p5279
I1297
sS'platform'
p5280
I4440
sS'happened'
p5281
I2610
sS'lonely'
p5282
I3513
sS'unveiling'
p5283
I5979
sS'conservatory'
p5284
I1463
sS'devastated'
p5285
I1748
sS'cicenia'
p5286
I1280
sS'sabah'
p5287
I5048
sS'chuckie'
p5288
I1273
sS'qualified'
p5289
I4682
sS'hamilton'
p5290
I2596
sS'feature'
p5291
I2178
sS'term'
p5292
I5715
sS'name'
p5293
I3980
sS'opera'
p5294
I4199
sS'dpp'
p5295
I1865
sS'realism'
p5296
I4769
sS'kruse'
p5297
I3307
sS'benita'
p5298
I815
sS'persian'
p5299
I4369
sS'begun'
p5300
I784
sS'authenticity'
p5301
I665
sS'plans'
p5302
I4434
sS'sybil'
p5303
I5628
sS'shoaib'
p5304
I5256
sS'factors'
p5305
I2131
sS'profit'
p5306
I4605
sS'darrow'
p5307
I1620
sS'oklahoma'
p5308
I4169
sS'overflowing'
p5309
I4252
sS'attended'
p5310
I642
sS'theory'
p5311
I5751
sS'lawmaker'
p5312
I3376
sS'zweig'
p5313
I6355
sS'costas'
p5314
I1515
sS'turn'
p5315
I5917
sS'butterflies'
p5316
I1053
sS'place'
p5317
I4426
sS'swing'
p5318
I5623
sS'charleston'
p5319
I1213
sS'yue'
p5320
I6334
sS'childhood'
p5321
I1243
sS'origin'
p5322
I4220
sS'sanchez'
p5323
I5076
sS'ibanez'
p5324
I2845
sS'fischbacher'
p5325
I2245
sS'coming'
p5326
I1381
sS'oversaw'
p5327
I4254
sS'array'
p5328
I575
sS'george'
p5329
I2424
sS'millions'
p5330
I3801
sS'given'
p5331
I2453
sS'ian'
p5332
I2844
sS'district'
p5333
I1815
sS'bahamas'
p5334
I713
sS'returns'
p5335
I4905
sS'convention'
p5336
I1491
sS'legally'
p5337
I3411
sS'white'
p5338
I6194
sS'gives'
p5339
I2454
sS'hua'
p5340
I2808
sS'circulated'
p5341
I1287
sS'shirley'
p5342
I5255
sS'specify'
p5343
I5422
sS'wide'
p5344
I6203
sS'barrington'
p5345
I746
sS'require'
p5346
I4872
sS'diplomatic'
p5347
I1783
sS'seminaries'
p5348
I5174
sS'djibril'
p5349
I1821
sS'schooled'
p5350
I5113
sS'poisoning'
p5351
I4467
sS'outcome'
p5352
I4241
sS'pre'
p5353
I4540
sS'armored'
p5354
I568
sS'brownfield'
p5355
I1003
sS'worcester'
p5356
I6253
sS'mateo'
p5357
I3691
sS'hornbeck'
p5358
I2775
sS'straddled'
p5359
I5524
sS'any'
p5360
I517
sS'marathon'
p5361
I3643
sS'urge'
p5362
I5988
sS'gleason'
p5363
I2456
sS'harinordoquy'
p5364
I2619
sS'multiple'
p5365
I3945
sS'tornado'
p5366
I5823
sS'sherman'
p5367
I5245
sS'falls'
p5368
I2145
sS'rematch'
p5369
I4838
sS'sterne'
p5370
I5503
sS'connor'
p5371
I1456
sS'freshman'
p5372
I2340
sS'keppler'
p5373
I3223
sS'falla'
p5374
I2143
sS'tendon'
p5375
I5706
sS'considered'
p5376
I1466
sS'jakarta'
p5377
I3058
sS'later'
p5378
I3363
sS'feynman'
p5379
I2201
sS'trafficking'
p5380
I5850
sS'senior'
p5381
I5182
sS'jiangxi'
p5382
I3110
sS'detective'
p5383
I1742
sS'allegations'
p5384
I419
sS'emmerich'
p5385
I1982
sS'percy'
p5386
I4355
sS'southwestern'
p5387
I5408
sS'soetoro'
p5388
I5368
sS'written'
p5389
I6278
sS'nadia'
p5390
I3975
sS'boyle'
p5391
I955
sS'larsson'
p5392
I3360
sS'presbyterian'
p5393
I4549
sS'viewpoint'
p5394
I6059
sS'mormon'
p5395
I3887
sS'jazz'
p5396
I3081
sS'expectation'
p5397
I2091
sS'tailor'
p5398
I5648
sS'trade'
p5399
I5843
sS'naked'
p5400
I3979
sS'scots'
p5401
I5129
sS'discussing'
p5402
I1800
sS'cjackson'
p5403
I1300
sS'1920'
p5404
I67
sS'1921'
p5405
I68
sS'1922'
p5406
I69
sS'1923'
p5407
I70
sS'college'
p5408
I1364
sS'1925'
p5409
I72
sS'1926'
p5410
I73
sS'1927'
p5411
I74
sS'1928'
p5412
I75
sS'1929'
p5413
I76
sS'encouraged'
p5414
I1991
sS'cadets'
p5415
I1062
sS'federal'
p5416
I2184
sS'review'
p5417
I4912
sS'amsheet'
p5418
I462
sS'outside'
p5419
I4248
sS'hsinchu'
p5420
I2805
sS'arrival'
p5421
I579
sS'robnik'
p5422
I4972
sS'drinan'
p5423
I1875
sS'cities'
p5424
I1290
sS'come'
p5425
I1377
sS'region'
p5426
I4813
sS'jericho'
p5427
I3093
sS'quiet'
p5428
I4695
sS'contract'
p5429
I1484
sS'gerald'
p5430
I2428
sS'senator'
p5431
I5178
sS'deported'
p5432
I1718
sS'pakistan'
p5433
I4281
sS'insist'
p5434
I2948
sS'60'
p5435
I216
sS'61'
p5436
I220
sS'63'
p5437
I221
sS'66'
p5438
I222
sS'69'
p5439
I224
sS'bizarre'
p5440
I872
sS'poe'
p5441
I4459
sS'lynton'
p5442
I3570
sS'phnom'
p5443
I4391
sS'turkey'
p5444
I5914
sS'late'
p5445
I3362
sS'estonia'
p5446
I2047
sS'howard'
p5447
I2801
sS'abdul'
p5448
I264
sS'helicopter'
p5449
I2678
sS'featuring'
p5450
I2180
sS'500'
p5451
I201
sS'engine'
p5452
I2004
sS'direction'
p5453
I1787
sS'kerry'
p5454
I3227
sS'ahmadis'
p5455
I374
sS'andrew'
p5456
I480
sS'implored'
p5457
I2883
sS'andrei'
p5458
I479
sS'minister'
p5459
I3810
sS'hingaighat'
p5460
I2724
sS'timbaland'
p5461
I5789
sS'andrea'
p5462
I477
sS'aragoncillo'
p5463
I538
sS'case'
p5464
I1143
sS'amend'
p5465
I452
sS'arnold'
p5466
I572
sS'cast'
p5467
I1146
sS'abducted'
p5468
I262
sS'abductee'
p5469
I263
sS'ellison'
p5470
I1965
sS'dissident'
p5471
I1810
sS'someone'
p5472
I5380
sS'ironic'
p5473
I3012
sS'author'
p5474
I666
sS'granted'
p5475
I2516
sS'reminded'
p5476
I4842
sS'trip'
p5477
I5881
sS'ethiopia'
p5478
I2053
sS'manila'
p5479
I3630
sS'events'
p5480
I2070
sS'status'
p5481
I5486
sS'refusal'
p5482
I4809
sS'driver'
p5483
I1878
sS'ness'
p5484
I4033
sS'producers'
p5485
I4600
sS'potro'
p5486
I4520
sS'anapu'
p5487
I472
sS'changing'
p5488
I1199
sS'mccullough'
p5489
I3707
sS'atkins'
p5490
I630
sS'kohlschreiber'
p5491
I3283
sS'pennsylvania'
p5492
I4350
sS'breda'
p5493
I973
sS'no'
p5494
I4075
sS'without'
p5495
I6236
sS'relief'
p5496
I4829
sS'model'
p5497
I3846
sS'arbaeen'
p5498
I541
sS'captures'
p5499
I1112
sS'actress'
p5500
I312
sS'pariah'
p5501
I4300
sS'cease'
p5502
I1159
sS'harrison'
p5503
I2626
sS'polish'
p5504
I4476
sS'ithaca'
p5505
I3036
sS'captured'
p5506
I1111
sS'blow'
p5507
I892
sS'liters'
p5508
I3482
sS'rose'
p5509
I5000
sS'rosa'
p5510
I4999
sS'blog'
p5511
I888
sS'interested'
p5512
I2974
sS'bloc'
p5513
I885
sS'\\('
p5514
I246
sS'\\)'
p5515
I247
sS'kingdom'
p5516
I3254
sS'kirby'
p5517
I3259
sS'museveni'
p5518
I3956
sS'delhi'
p5519
I1694
sS'virginia'
p5520
I6072
sS'confined'
p5521
I1438
sS'accepted'
p5522
I284
sS'tante'
p5523
I5666
sS'braddock'
p5524
I957
sS'swift'
p5525
I5622
sS'kennedy'
p5526
I3217
sS'patrick'
p5527
I4327
sS'madrid'
p5528
I3587
sS'competition'
p5529
I1411
sS'kasparov'
p5530
I3201
sS'obtaining'
p5531
I4142
sS'dudley'
p5532
I1890
sS'legal'
p5533
I3409
sS'moon'
p5534
I3880
sS'buddha'
p5535
I1017
sS'porter'
p5536
I4501
sS'slaughter'
p5537
I5338
sS'earlier'
p5538
I1908
sS'on'
p5539
I4187
sS'hlavac'
p5540
I2736
sS'of'
p5541
I4155
sS'brittany'
p5542
I990
sS'karan'
p5543
I3194
sS'karas'
p5544
I3195
sS'exquisite'
p5545
I2107
sS'stang'
p5546
I5469
sS'discusses'
p5547
I1799
sS'or'
p5548
I4211
sS'tribe'
p5549
I5875
sS'cambridge'
p5550
I1079
sS'nyoni'
p5551
I4131
sS'communication'
p5552
I1400
sS'rising'
p5553
I4952
sS'determine'
p5554
I1745
sS'gary'
p5555
I2398
sS'burton'
p5556
I1041
sS'ponch'
p5557
I4484
sS'there'
p5558
I5753
sS'alleged'
p5559
I420
sS'interfax'
p5560
I2977
sS'racist'
p5561
I4710
sS'budd'
p5562
I1016
sS'deteriorating'
p5563
I1744
sS'alleges'
p5564
I422
sS'valley'
p5565
I6012
sS'abkhazia'
p5566
I270
sS'vicente'
p5567
I6044
sS'750'
p5568
I231
sS'alain'
p5569
I392
sS'cabinet'
p5570
I1061
sS'promote'
p5571
I4617
sS'longer'
p5572
I3515
sS'artisans'
p5573
I588
sS'salome'
p5574
I5064
sS'priklopil'
p5575
I4571
sS'strongly'
p5576
I5546
sS'taylor'
p5577
I5684
sS'cinema'
p5578
I1286
sS'taste'
p5579
I5677
sS'minneapolis'
p5580
I3814
sS'britain'
p5581
I988
sS'liverpool'
p5582
I3491
sS'together'
p5583
I5806
sS'politics'
p5584
I4479
sS'blues'
p5585
I896
sS'heather'
p5586
I2664
sS'5'
p5587
I199
sS'immunity'
p5588
I2880
sS'briefly'
p5589
I979
sS'lewter'
p5590
I3436
sS'reception'
p5591
I4784
sS'separate'
p5592
I5191
sS'hwa'
p5593
I2835
sS'5736'
p5594
I211
sS'kingsley'
p5595
I3255
sS'included'
p5596
I2900
sS'bilateral'
p5597
I855
sS'calls'
p5598
I1076
sS'wife'
p5599
I6206
sS'odds'
p5600
I4152
sS'barcelona'
p5601
I739
sS'padraig'
p5602
I4268
sS'directors'
p5603
I1790
sS'booker'
p5604
I927
sS'missouri'
p5605
I3831
sS'chuen'
p5606
I1274
sS'migrated'
p5607
I3786
sS'all'
p5608
I416
sS'chinese'
p5609
I1248
sS'ali'
p5610
I412
sS'southland'
p5611
I5407
sS'lack'
p5612
I3331
sS'javed'
p5613
I3078
sS'ala'
p5614
I390
sS'follow'
p5615
I2278
sS'jerome'
p5616
I3094
sS'apartment'
p5617
I520
sS'schiff'
p5618
I5107
sS'subjected'
p5619
I5564
sS'acting'
p5620
I304
sS'thursday'
p5621
I5779
sS'aaron'
p5622
I252
sS'program'
p5623
I4606
sS'lawmakers'
p5624
I3377
sS'belonging'
p5625
I805
sS'woman'
p5626
I6244
sS'egyptian'
p5627
I1940
sS'far'
p5628
I2161
sS'fat'
p5629
I2168
sS'sons'
p5630
I5387
sS'worst'
p5631
I6266
sS'and'
p5632
I475
sS'list'
p5633
I3478
sS'prolonged'
p5634
I4611
sS'anand'
p5635
I470
sS'vaudevillians'
p5636
I6025
sS'tel'
p5637
I5696
sS'escalation'
p5638
I2039
sS'ten'
p5639
I5705
sS'reins'
p5640
I4821
sS'tee'
p5641
I5692
sS'design'
p5642
I1732
sS'brillo'
p5643
I985
sS'nbc'
p5644
I4013
sS'lynwood'
p5645
I3571
sS'belief'
p5646
I798
sS'milosevic'
p5647
I3804
sS'what'
p5648
I6186
sS'deeply'
p5649
I1666
sS'brief'
p5650
I977
sS'suu'
p5651
I5614
sS'version'
p5652
I6037
sS'racing'
p5653
I4709
sS'guns'
p5654
I2569
sS'christian'
p5655
I1265
sS'eligibility'
p5656
I1960
sS'certainly'
p5657
I1177
sS'berkeley'
p5658
I824
sS'naval'
p5659
I4006
sS'difficulty'
p5660
I1776
sS'options'
p5661
I4210
sS'agustin'
p5662
I368
sS'commandments'
p5663
I1385
sS'simonyi'
p5664
I5308
sS'appliances'
p5665
I529
sS'1909'
p5666
I56
sS'1906'
p5667
I53
sS'1907'
p5668
I54
sS'1904'
p5669
I51
sS'1905'
p5670
I52
sS'florence'
p5671
I2264
sS'1903'
p5672
I50
sS'1900'
p5673
I49
sS'proceed'
p5674
I4593
sS'auerbach'
p5675
I655
sS'conspiring'
p5676
I1470
sS'toughs'
p5677
I5829
sS'branded'
p5678
I961
sS'horses'
p5679
I2778
sS'israel'
p5680
I3023
sS'knows'
p5681
I3280
sS'bumped'
p5682
I1026
sS'hoffman'
p5683
I2740
sS'floyd'
p5684
I2269
sS'known'
p5685
I3279
sS'mellor'
p5686
I3738
sS'salvador'
p5687
I5067
sS'bashir'
p5688
I753
sS'prompting'
p5689
I4619
sS'pont'
p5690
I4487
sS'renate'
p5691
I4844
sS'shanxi'
p5692
I5227
sS'influenced'
p5693
I2930
sS'kuwaiti'
p5694
I3319
sS'court'
p5695
I1536
sS'rather'
p5696
I4748
sS'breaking'
p5697
I970
sS'buenos'
p5698
I1018
sS'gisele'
p5699
I2450
sS'simplicity'
p5700
I5310
sS'ibrahim'
p5701
I2846
sS'ubiquitous'
p5702
I5933
sS'adventure'
p5703
I337
sS'castle'
p5704
I1147
sS'shortcomings'
p5705
I5267
sS'middlebrook'
p5706
I3780
sS'shore'
p5707
I5265
sS'courbet'
p5708
I1534
sS'september'
p5709
I5195
sS'essence'
p5710
I2044
sS'emmanuel'
p5711
I1981
sS'mission'
p5712
I3828
sS'scientist'
p5713
I5121
sS'eluded'
p5714
I1968
sS'rooted'
p5715
I4997
sS'bustamante'
p5716
I1047
sS'assaulting'
p5717
I612
sS'prodigy'
p5718
I4596
sS'strange'
p5719
I5528
sS'davydenko'
p5720
I1629
sS'stephen'
p5721
I5499
sS'argentina'
p5722
I551
sS'soccer'
p5723
I5363
sS'might'
p5724
I3785
sS'argentine'
p5725
I552
sS'return'
p5726
I4903
sS'videotaped'
p5727
I6052
sS'framework'
p5728
I2312
sS'communities'
p5729
I1403
sS'hunted'
p5730
I2828
sS'marcus'
p5731
I3648
sS'schoolteacher'
p5732
I5116
sS'odinga'
p5733
I4154
sS'policeman'
p5734
I4473
sS'wilbraham'
p5735
I6209
sS'mansour'
p5736
I3633
sS'used'
p5737
I5996
sS'brother'
p5738
I997
sS'conakry'
p5739
I1422
sS'expect'
p5740
I2090
sS'telltale'
p5741
I5700
sS'clandestine'
p5742
I1308
sS'nepal'
p5743
I4032
sS'health'
p5744
I2659
sS'hill'
p5745
I2716
sS'benjamin'
p5746
I816
sS'lamine'
p5747
I3344
sS'friday'
p5748
I2342
sS'kamuzu'
p5749
I3186
sS'bhutanese'
p5750
I841
sS'benedict'
p5751
I812
sS'threat'
p5752
I5772
sS'feel'
p5753
I2187
sS'radical'
p5754
I4715
sS'dink'
p5755
I1779
sS'linking'
p5756
I3473
sS'feer'
p5757
I2189
sS'soapy'
p5758
I5362
sS'says'
p5759
I5101
sS'verifiable'
p5760
I6034
sS'story'
p5761
I5523
sS'script'
p5762
I5138
sS'leading'
p5763
I3390
sS"gates'"
p5764
I2401
sS'storm'
p5765
I5522
sS'raila'
p5766
I4722
sS'ecuador'
p5767
I1921
sS'attendants'
p5768
I641
sS'mikael'
p5769
I3788
sS'calculations'
p5770
I1066
sS'hotel'
p5771
I2789
sS'condoleezza'
p5772
I1433
sS'sarkozy'
p5773
I5088
sS'treasurer'
p5774
I5868
sS'gronkowski'
p5775
I2542
sS'king'
p5776
I3253
sS'kind'
p5777
I3252
sS'double'
p5778
I1854
sS'invaded'
p5779
I2989
sS'architect'
p5780
I544
sS'dani'
p5781
I1613
sS'dana'
p5782
I1607
sS'zainal'
p5783
I6338
sS'uniforms'
p5784
I5963
sS'igor'
p5785
I2857
sS'oakes'
p5786
I4136
sS'wilson'
p5787
I6216
sS'saadat'
p5788
I5046
sS'judah'
p5789
I3154
sS'mulongwe'
p5790
I3943
sS'kagame'
p5791
I3182
sS'folkman'
p5792
I2276
sS'chairman'
p5793
I1184
sS'schnur'
p5794
I5109
sS'finding'
p5795
I2227
sS'sherry'
p5796
I5246
sS'pianist'
p5797
I4404
sS'miyazawa'
p5798
I3838
sS'added'
p5799
I317
sS'rucksack'
p5800
I5017
sS'intervened'
p5801
I2983
sS'measures'
p5802
I3716
sS'reunited'
p5803
I4906
sS'77'
p5804
I232
sS'74'
p5805
I230
sS'72'
p5806
I229
sS'71'
p5807
I228
sS'sandra'
p5808
I5078
sS'nothing'
p5809
I4099
sS'seasons'
p5810
I5143
sS'screenwriter'
p5811
I5137
sS'79'
p5812
I234
sS'constitution'
p5813
I1472
sS'dealers'
p5814
I1639
sS'unsupervised'
p5815
I5977
sS'traditional'
p5816
I5846
sS'institutions'
p5817
I2959
sS'kosovo'
p5818
I3297
sS'deserts'
p5819
I1731
sS'carmine'
p5820
I1131
sS'moses'
p5821
I3893
sS'moser'
p5822
I3892
sS'discuss'
p5823
I1798
sS'his'
p5824
I2729
sS'hit'
p5825
I2733
sS'hiu'
p5826
I2735
sS'multimillionaire'
p5827
I3944
sS'whistle'
p5828
I6193
sS'binalshibh'
p5829
I862
sS'longest'
p5830
I3516
sS'trafalgar'
p5831
I5848
sS'him'
p5832
I2720
sS'budapest'
p5833
I1015
sS'investigate'
p5834
I2993
sS'wrote'
p5835
I6279
sS'art'
p5836
I585
sS'muayyed'
p5837
I3931
sS'choreographer'
p5838
I1259
sS'intelligence'
p5839
I2968
sS'upsurge'
p5840
I5986
sS'kylie'
p5841
I3323
sS'defense'
p5842
I1675
sS'are'
p5843
I548
sS'ark'
p5844
I559
sS'youth'
p5845
I6329
sS'klux'
p5846
I3268
sS'various'
p5847
I6018
sS'nestor'
p5848
I4035
sS'corruption'
p5849
I1509
sS'paisley'
p5850
I4279
sS'latin'
p5851
I3365
sS'recently'
p5852
I4783
sS'creating'
p5853
I1547
sS'initially'
p5854
I2939
sS'sole'
p5855
I5373
sS'opposition'
p5856
I4207
sS'condi'
p5857
I1430
sS'bronze'
p5858
I995
sS'c'
p5859
I1059
sS'roman'
p5860
I4990
sS'54th'
p5861
I207
sS'annie'
p5862
I499
sS'clashing'
p5863
I1315
sS'reasons'
p5864
I4773
sS'smith'
p5865
I5351
sS'flattest'
p5866
I2255
sS'tufino'
p5867
I5907
sS'village'
p5868
I6065
sS'rave'
p5869
I4756
sS'java'
p5870
I3077
sS'duo'
p5871
I1896
sS'deployment'
p5872
I1717
sS'political'
p5873
I4477
sS'due'
p5874
I1891
sS'strategy'
p5875
I5531
sS'whom'
p5876
I6199
sS'reduction'
p5877
I4797
sS'pa'
p5878
I4264
sS'brick'
p5879
I975
sS'pm'
p5880
I4456
sS'flight'
p5881
I2261
sS'1950s'
p5882
I99
sS'algeria'
p5883
I411
sS'demand'
p5884
I1697
sS'georgia'
p5885
I2426
sS'berkman'
p5886
I825
sS'almalki'
p5887
I432
sS'douri'
p5888
I1857
sS'shortened'
p5889
I5268
sS'nkunda'
p5890
I4074
sS'goisern'
p5891
I2470
sS'ria'
p5892
I4922
sS'lengthy'
p5893
I3419
sS'james'
p5894
I3061
sS'9'
p5895
I241
sS'federer'
p5896
I2186
sS'daughters'
p5897
I1624
sS'higher'
p5898
I2713
sS'arrives'
p5899
I581
sS'arrived'
p5900
I580
sS'munich'
p5901
I3948
sS'obit'
p5902
I4139
sS'lower'
p5903
I3541
sS'politkovskaya'
p5904
I4480
sS'sonnenfeldt'
p5905
I5386
sS'whitson'
p5906
I6196
sS'questions'
p5907
I4692
sS'prince'
p5908
I4575
sS'advisers'
p5909
I340
sS'workers'
p5910
I6259
sS'contractor'
p5911
I1485
sS'coulibaly'
p5912
I1519
sS'exhibition'
p5913
I2087
sS'complaint'
p5914
I1414
sS'hardscrabble'
p5915
I2617
sS'catalan'
p5916
I1150
sS'jacksonville'
p5917
I3051
sS'skiatook'
p5918
I5330
sS'confront'
p5919
I1443
sS'separately'
p5920
I5192
sS'arthur'
p5921
I586
sS'entice'
p5922
I2018
sS'hillsmith'
p5923
I2719
sS'understood'
p5924
I5958
sS'jining'
p5925
I3116
sS'prop'
p5926
I4622
sS'adoptive'
p5927
I330
sS'anne'
p5928
I497
sS'anna'
p5929
I495
sS'figueres'
p5930
I2214
sS'palmer'
p5931
I4289
sS'raided'
p5932
I4721
sS'refused'
p5933
I4810
sS'devlin'
p5934
I1756
sS'cannons'
p5935
I1101
sS'intense'
p5936
I2970
sS'simoncelli'
p5937
I5306
sS'completing'
p5938
I1415
sS'firing'
p5939
I2241
sS'range'
p5940
I4740
sS'gujarat'
p5941
I2564
sS'purists'
p5942
I4667
sS'countercurrents'
p5943
I1523
sS'credible'
p5944
I1551
sS'atwal'
p5945
I650
sS'parton'
p5946
I4315
sS'variously'
p5947
I6019
sS'canal'
p5948
I1094
sS'defaming'
p5949
I1668
sS'question'
p5950
I4691
sS'long'
p5951
I3514
sS'taliban'
p5952
I5658
sS'vienna'
p5953
I6056
sS'mountains'
p5954
I3910
sS'repeatedly'
p5955
I4851
sS'filed'
p5956
I2218
sS'junior'
p5957
I3167
sS'raising'
p5958
I4727
sS'arjun'
p5959
I558
sS'guyana'
p5960
I2575
sS'called'
p5961
I1073
sS'purcell'
p5962
I4663
sS'shandong'
p5963
I5224
sS'winthrop'
p5964
I6228
sS'roared'
p5965
I4964
sS'commissioner'
p5966
I1394
sS'kathryn'
p5967
I3205
sS'divisive'
p5968
I1818
sS'rally'
p5969
I4730
sS'graham'
p5970
I2507
sS'savaging'
p5971
I5096
sS'tentative'
p5972
I5711
sS'evils'
p5973
I2077
sS'peace'
p5974
I4338
sS'backs'
p5975
I702
sS'nice'
p5976
I4054
sS'dale'
p5977
I1598
sS'gabi'
p5978
I2371
sS'problems'
p5979
I4592
sS'allowing'
p5980
I429
sS'vice'
p5981
I6043
sS'jansen'
p5982
I3070
sS'nash'
p5983
I3989
sS'buffalo'
p5984
I1019
sS'once'
p5985
I4188
sS'albion'
p5986
I400
sS'rahho'
p5987
I4719
sS'aliev'
p5988
I413
sS'issued'
p5989
I3027
sS'resistance'
p5990
I4879
sS'cheung'
p5991
I1236
sS'011'
p5992
I14
sS'gang'
p5993
I2385
sS'contributions'
p5994
I1487
sS'issues'
p5995
I3028
sS'theorist'
p5996
I5750
sS'simon'
p5997
I5305
sS'shanghai'
p5998
I5226
sS'stable'
p5999
I5453
sS'include'
p6000
I2899
sS'snipes'
p6001
I5356
sS'seized'
p6002
I5170
sS'mainstream'
p6003
I3602
sS'lanza'
p6004
I3353
sS'moroccan'
p6005
I3889
sS'bryant'
p6006
I1012
sS'leveled'
p6007
I3432
sS'polling'
p6008
I4481
sS'fortified'
p6009
I2299
sS'settlers'
p6010
I5213
sS'noted'
p6011
I4098
sS'claudia'
p6012
I1322
sS'plows'
p6013
I4451
sS'folds'
p6014
I2273
sS'rrb'
p6015
I5015
sS'traveling'
p6016
I5867
sS'concludes'
p6017
I1428
sS'folk'
p6018
I2275
sS'universities'
p6019
I5970
sS'showcase'
p6020
I5275
sS'19th'
p6021
I142
sS'capital'
p6022
I1104
sS'nazis'
p6023
I4011
sS'michalak'
p6024
I3775
sS'chose'
p6025
I1261
sS'degree'
p6026
I1681
sS'slated'
p6027
I5337
sS'youngest'
p6028
I6324
sS'kolff'
p6029
I3284
sS'settling'
p6030
I5214
sS'fredericton'
p6031
I2333
sS'survivor'
p6032
I5606
sS'distressed'
p6033
I1814
sS'larger'
p6034
I3357
sS'leaving'
p6035
I3401
sS'olivier'
p6036
I4178
sS'harrington'
p6037
I2625
sS'1632'
p6038
I32
sS'deputy'
p6039
I1722
sS'egypt'
p6040
I1939
sS'thitinan'
p6041
I5766
sS'improbable'
p6042
I2891
sS'motor'
p6043
I3903
sS'use'
p6044
I5995
sS'from'
p6045
I2349
sS'stream'
p6046
I5534
sS'olmert'
p6047
I4179
sS'few'
p6048
I2199
sS'ust'
p6049
I5999
sS'timetable'
p6050
I5792
sS'automobile'
p6051
I671
sS'sort'
p6052
I5395
sS'parliament'
p6053
I4305
sS'journalists'
p6054
I3148
sS'musician'
p6055
I3960
sS'tuerk'
p6056
I5905
sS'soro'
p6057
I5393
sS'women'
p6058
I6245
sS'topic'
p6059
I5820
sS'islamabad'
p6060
I3018
sS'anywhere'
p6061
I518
sS'executor'
p6062
I2086
sS'museet'
p6063
I3954
sS'proof'
p6064
I4621
sS'tat'
p6065
I5679
sS'arafat'
p6066
I537
sS'patron'
p6067
I4330
sS'tax'
p6068
I5682
sS'tag'
p6069
I5645
sS'something'
p6070
I5382
sS'tao'
p6071
I5668
sS'rape'
p6072
I4743
sS'autobiography'
p6073
I669
sS'united'
p6074
I5966
sS'syndrome'
p6075
I5634
sS'sit'
p6076
I5322
sS'six'
p6077
I5326
sS'instead'
p6078
I2957
sS'grudgingly'
p6079
I2552
sS'memoir'
p6080
I3745
sS'administrator'
p6081
I324
sS'hurdler'
p6082
I2829
sS'attend'
p6083
I640
sS'abuse'
p6084
I282
sS'powerbase'
p6085
I4528
sS'ethnic'
p6086
I2054
sS'eritrea'
p6087
I2033
sS'fuming'
p6088
I2357
sS'martins'
p6089
I3669
sS'light'
p6090
I3453
sS'emanuel'
p6091
I1970
sS'tenure'
p6092
I5712
sS'interpreted'
p6093
I2981
sS'130'
p6094
I25
sS'joanna'
p6095
I3122
sS'jimenez'
p6096
I3113
sS'glen'
p6097
I2457
sS'sunni'
p6098
I5590
sS'dikgacoi'
p6099
I1778
sS'choose'
p6100
I1255
sS'crowds'
p6101
I1569
sS'freeman'
p6102
I2335
sS'violating'
p6103
I6067
sS'campaigned'
p6104
I1086
sS'crash'
p6105
I1544
sS'orthodox'
p6106
I4228
sS'wolfgang'
p6107
I6243
sS'practice'
p6108
I4530
sS'bejart'
p6109
I789
sS'flew'
p6110
I2260
sS'campaigner'
p6111
I1087
sS'republican'
p6112
I4868
sS'fled'
p6113
I2257
sS'successor'
p6114
I5575
sS'salford'
p6115
I5062
sS'worlds'
p6116
I6263
sS'bewilderment'
p6117
I840
sS'trimmer'
p6118
I5879
sS'nfl'
p6119
I4050
sS'trimmed'
p6120
I5878
sS'mwanawasa'
p6121
I3968
sS'rockets'
p6122
I4977
sS'hyun'
p6123
I2840
sS'barnett'
p6124
I744
sS'88'
p6125
I240
sS'lobbied'
p6126
I3501
sS'82'
p6127
I237
sS'our'
p6128
I4239
sS'80'
p6129
I236
sS'out'
p6130
I4240
sS'lahore'
p6131
I3335
sS'plaguing'
p6132
I4429
sS'kiyani'
p6133
I3264
sS'satyanand'
p6134
I5093
sS'komsomol'
p6135
I3288
sS'ipod'
p6136
I3000
sS'loyola'
p6137
I3543
sS'york'
p6138
I6320
sS'conflicts'
p6139
I1441
sS'g'
p6140
I2369
sS'homelessness'
p6141
I2756
sS'rafik'
p6142
I4718
sS'intuitively'
p6143
I2988
sS'probation'
p6144
I4591
sS'publication'
p6145
I4652
sS'myspace'
p6146
I3972
sS'accountant'
p6147
I292
sS'priority'
p6148
I4581
sS'their'
p6149
I5741
sS'310'
p6150
I179
sS'academy'
p6151
I283
sS'peoria'
p6152
I4353
sS'july'
p6153
I3162
sS'mompati'
p6154
I3861
sS'hearings'
p6155
I2662
sS'holland'
p6156
I2745
sS'xenia'
p6157
I6284
sS'cohen'
p6158
I1354
sS'gluecksohn'
p6159
I2461
sS'linked'
p6160
I3472
sS'catholic'
p6161
I1153
sS'agency'
p6162
I356
sS'which'
p6163
I6191
sS'combat'
p6164
I1374
sS'who'
p6165
I6197
sS'class'
p6166
I1316
sS'neighboring'
p6167
I4027
sS'xavier'
p6168
I6283
sS'deng'
p6169
I1709
sS'uefa'
p6170
I5935
sS'goals'
p6171
I2464
sS'tariq'
p6172
I5672
sS'agreed'
p6173
I366
sS'purely'
p6174
I4665
sS'planning'
p6175
I4433
sS'democrats'
p6176
I1705
sS'fear'
p6177
I2175
sS'debate'
p6178
I1646
sS'mumbai'
p6179
I3946
sS'rosenthal'
p6180
I5001
sS'candidates'
p6181
I1099
sS'piano'
p6182
I4405
sS'local'
p6183
I3502
sS'okla'
p6184
I4168
sS'cuba'
p6185
I1574
sS'words'
p6186
I6255
sS'presley'
p6187
I4557
sS'delgado'
p6188
I1693
sS'spur'
p6189
I5449
sS'ended'
p6190
I1995
sS'married'
p6191
I3664
sS'affluent'
p6192
I343
sS'ripley'
p6193
I4950
sS'betancourt'
p6194
I833
sS'generations'
p6195
I2418
sS'europe'
p6196
I2060
sS'ebb'
p6197
I1917
sS'expel'
p6198
I2093
sS'admonition'
p6199
I326
sS'maiman'
p6200
I3598
sS'closer'
p6201
I1339
sS'televised'
p6202
I5697
sS'arguably'
p6203
I553
sS'favor'
p6204
I2170
sS'closed'
p6205
I1338
sS'stories'
p6206
I5521
sS'henan'
p6207
I2687
sS'opening'
p6208
I4197
sS'agencies'
p6209
I355
sS'embarrassment'
p6210
I1971
sS'job'
p6211
I3124
sS'joe'
p6212
I3126
sS'avon'
p6213
I678
sS'mcdowell'
p6214
I3708
sS'poncherello'
p6215
I4485
sS'jon'
p6216
I3136
sS'karzai'
p6217
I3200
sS'archrivals'
p6218
I547
sS'acknowledge'
p6219
I299
sS'april'
p6220
I533
sS'grain'
p6221
I2508
sS'bronx'
p6222
I994
sS'benzema'
p6223
I819
sS'unclear'
p6224
I5952
sS'tunisia'
p6225
I5909
sS'walk'
p6226
I6110
sS'guantanamo'
p6227
I2554
sS'christened'
p6228
I1264
sS'unhappiness'
p6229
I5962
sS'hindu'
p6230
I2723
sS'zablocki'
p6231
I6337
sS'mike'
p6232
I3789
sS'newsom'
p6233
I4045
sS'painted'
p6234
I4276
sS'last'
p6235
I3361
sS'present'
p6236
I4551
sS'abandoned'
p6237
I254
sS'choices'
p6238
I1254
sS'will'
p6239
I6212
sS'madeleine'
p6240
I3583
sS'lakeside'
p6241
I3341
sS'dual'
p6242
I1886
sS'radiation'
p6243
I4714
sS'cross'
p6244
I1566
sS'member'
p6245
I3741
sS'propensity'
p6246
I4626
sS'unity'
p6247
I5968
sS'largest'
p6248
I3358
sS'difficult'
p6249
I1775
sS'coached'
p6250
I1347
sS'conspired'
p6251
I1469
sS'coaches'
p6252
I1348
sS'adirondack'
p6253
I321
sS'zevon'
p6254
I6343
sS'student'
p6255
I5552
sS'warming'
p6256
I6124
sS'brigadier'
p6257
I981
sS'fighting'
p6258
I2212
sS'english'
p6259
I2007
sS'flint'
p6260
I2262
sS'contenders'
p6261
I1479
sS'heavily'
p6262
I2665
sS'khrushchev'
p6263
I3235
sS'1952'
p6264
I101
sS'obtain'
p6265
I4141
sS'patrik'
p6266
I4328
sS'sky'
p6267
I5334
sS'heston'
p6268
I2704
sS'hall'
p6269
I2591
sS'arresting'
p6270
I578
sS'book'
p6271
I926
sS'attractive'
p6272
I649
sS'sparking'
p6273
I5415
sS'helensburgh'
p6274
I2677
sS'protesters'
p6275
I4639
sS'dahlberg'
p6276
I1594
sS'know'
p6277
I3276
sS'press'
p6278
I4558
sS'palfrey'
p6279
I4286
sS"o'ree"
p6280
I4135
sS'feigner'
p6281
I2190
sS'miami'
p6282
I3770
sS'lawson'
p6283
I3380
sS'tennessee'
p6284
I5708
sS'hosts'
p6285
I2787
sS'pramod'
p6286
I4536
sS'vojislav'
p6287
I6088
sS'because'
p6288
I775
sS'smoothly'
p6289
I5355
sS'turkcell'
p6290
I5913
sS'scared'
p6291
I5103
sS'scottish'
p6292
I5131
sS'demeanor'
p6293
I1700
sS'export'
p6294
I2102
sS'tarnow'
p6295
I5673
sS'empire'
p6296
I1985
sS'throughout'
p6297
I5777
sS'lead'
p6298
I3386
sS'mines'
p6299
I3807
sS'lear'
p6300
I3396
sS'mined'
p6301
I3806
sS'leader'
p6302
I3387
sS'slur'
p6303
I5346
sS'mitt'
p6304
I3836
sS'murdered'
p6305
I3950
sS'hostage'
p6306
I2785
sS'rare'
p6307
I4746
sS'carried'
p6308
I1136
sS'getting'
p6309
I2434
sS'sectarian'
p6310
I5154
sS'urged'
p6311
I5989
sS'mahut'
p6312
I3596
sS'suharto'
p6313
I5582
sS'own'
p6314
I4258
sS'weather'
p6315
I6154
sS'stratford'
p6316
I5532
sS'prompted'
p6317
I4618
sS'van'
p6318
I6014
sS'transfer'
p6319
I5859
sS'cinderella'
p6320
I1284
sS'apps'
p6321
I532
sS'tourist'
p6322
I5834
sS'uniting'
p6323
I5967
sS'ed'
p6324
I1922
sS'delanoe'
p6325
I1684
sS'mailer'
p6326
I3597
sS'shane'
p6327
I5225
sS'volume'
p6328
I6092
sS'made'
p6329
I3582
sS'whether'
p6330
I6190
sS'protesting'
p6331
I4640
sS'record'
p6332
I4788
sS'below'
p6333
I806
sS'ruling'
p6334
I5024
sS'rickets'
p6335
I4934
sS'anja'
p6336
I491
sS'diplomat'
p6337
I1782
sS"'ll"
p6338
I4
sS'illinois'
p6339
I2865
sS'other'
p6340
I4233
sS'sharpstein'
p6341
I5235
sS'branch'
p6342
I960
sS'toured'
p6343
I5832
sS'rehman'
p6344
I4819
sS'lance'
p6345
I3346
sS'chavez'
p6346
I1218
sS'june'
p6347
I3165
sS'margaret'
p6348
I3649
sS'habash'
p6349
I2579
sS"republicans'"
p6350
I4869
sS'emery'
p6351
I1976
sS'djurgarden'
p6352
I1823
sS'tensions'
p6353
I5710
sS'richardson'
p6354
I4930
sS'sunnylands'
p6355
I5591
sS'representative'
p6356
I4863
s(lp6357
g4039
ag1298
ag368
ag3573
ag6338
ag1753
ag4342
ag382
ag3880
ag3219
ag3532
ag3352
ag2628
ag3353
ag5992
ag3351
ag3354
ag3357
ag5255
ag3707
ag3149
ag3706
ag3709
ag2929
ag3708
ag6094
ag3711
ag3622
ag3710
ag4919
ag3713
ag3391
ag6038
ag3390
ag956
ag596
ag3712
ag3197
ag3715
ag5149
ag2049
ag2260
ag2257
ag2706
ag2707
ag2705
ag2703
ag2704
ag3714
ag5673
ag5672
ag5669
ag5670
ag5667
ag5668
ag1885
ag5666
ag2506
ag2505
ag2508
ag2507
ag2510
ag2509
ag2512
ag2511
ag2503
ag2502
ag5404
ag5405
ag5406
ag5407
ag534
ag5409
ag5410
ag5411
ag5412
ag5413
ag2346
ag2271
ag2270
ag2269
ag2275
ag2274
ag2273
ag2272
ag2278
ag2277
ag5167
ag1583
ag5168
ag5165
ag5166
ag5171
ag5172
ag5169
ag5170
ag5163
ag5164
ag2058
ag5882
ag2057
ag6264
ag2059
ag2054
ag2053
ag2056
ag2055
ag2065
ag4974
ag4939
ag4940
ag4941
ag4936
ag4937
ag4938
ag4933
ag4934
ag1842
ag1841
ag1840
ag1839
ag1838
ag4918
ag4700
ag2026
ag2861
ag4699
ag4698
ag4696
ag4697
ag4703
ag4704
ag1619
ag1618
ag1621
ag1620
ag1623
ag1622
ag1625
ag1624
ag1627
ag1626
ag6021
ag524
ag4071
ag3733
ag4359
ag4360
ag4357
ag4358
ag4363
ag749
ag4361
ag4362
ag4367
ag4368
ag4348
ag1277
ag1279
ag1278
ag3983
ag4072
ag662
ag660
ag4073
ag4074
ag4067
ag3260
ag4068
ag232
ag4069
ag3022
ag4070
ag4075
ag4076
ag2171
ag4419
ag4312
ag4418
ag6150
ag4417
ag4416
ag4423
ag4754
ag4755
ag4422
ag1047
ag4420
ag1023
ag3865
ag4736
ag4856
ag4855
ag4734
ag4732
ag4733
ag4730
ag4608
ag4731
ag5587
ag5072
ag5451
ag3557
ag5071
ag5074
ag5073
ag5068
ag5861
ag5067
ag5070
ag5069
ag5594
ag5065
ag5064
ag1187
ag831
ag5435
ag2313
ag2324
ag163
ag5436
ag5437
ag5438
ag3209
ag5439
ag2473
ag2683
ag2841
ag5807
ag5806
ag5805
ag5568
ag5804
ag2692
ag5812
ag4179
ag6129
ag6127
ag4725
ag827
ag6125
ag5895
ag62
ag64
ag65
ag482
ag5514
ag5515
ag1001
ag791
ag442
ag2422
ag5622
ag4028
ag6237
ag5221
ag1385
ag1412
ag824
ag1766
ag1024
ag4350
ag5468
ag5469
ag5448
ag419
ag2805
ag3896
ag4355
ag2256
ag5566
ag2896
ag1784
ag2563
ag4683
ag3835
ag1590
ag2672
ag4296
ag1242
ag3993
ag4297
ag6084
ag6151
ag5522
ag4404
ag156
ag5129
ag961
ag68
ag5110
ag3833
ag6147
ag370
ag4834
ag3052
ag2546
ag2852
ag215
ag6219
ag4843
ag4476
ag3783
ag4454
ag5620
ag819
ag972
ag2167
ag2850
ag979
ag376
ag375
ag5500
ag4275
ag760
ag3878
ag4650
ag5799
ag4980
ag425
ag3119
ag6253
ag4653
ag4626
ag6081
ag4662
ag6199
ag2150
ag365
ag4901
ag5927
ag4839
ag3183
ag3683
ag5063
ag5178
ag2089
ag5703
ag4045
ag3539
ag5909
ag1443
ag162
ag6192
ag1462
ag3560
ag4007
ag3640
ag1643
ag3466
ag3935
ag3365
ag3462
ag1160
ag4148
ag6209
ag6162
ag2818
ag3610
ag1009
ag577
ag1966
ag962
ag4951
ag717
ag728
ag6173
ag1099
ag5662
ag732
ag3211
ag2374
ag592
ag2685
ag5455
ag5108
ag75
ag1813
ag3106
ag3587
ag2384
ag3876
ag1811
ag1810
ag2535
ag4002
ag2591
ag3241
ag632
ag735
ag5614
ag4946
ag5569
ag4421
ag5078
ag4685
ag2618
ag1720
ag3968
ag3967
ag5986
ag2548
ag2647
ag2399
ag3011
ag1294
ag403
ag2561
ag4005
ag1232
ag3696
ag5883
ag5610
ag5988
ag4467
ag2695
ag5608
ag113
ag1395
ag5384
ag5559
ag3700
ag5564
ag1006
ag547
ag1520
ag4506
ag1360
ag456
ag5980
ag2516
ag880
ag5887
ag4235
ag4620
ag1066
ag426
ag2521
ag1719
ag4844
ag4896
ag941
ag440
ag1873
ag4873
ag320
ag882
ag734
ag4965
ag3319
ag4838
ag379
ag5465
ag1955
ag2138
ag2488
ag4371
ag4799
ag4841
ag5024
ag487
ag3804
ag5418
ag3478
ag4687
ag2243
ag736
ag233
ag2152
ag4794
ag5635
ag2447
ag5487
ag5019
ag4516
ag5632
ag3103
ag5462
ag779
ag5458
ag5456
ag5223
ag655
ag3505
ag2126
ag2006
ag1516
ag2011
ag2130
ag437
ag1316
ag6336
ag4382
ag151
ag239
ag5929
ag865
ag5928
ag3618
ag5862
ag1746
ag4959
ag2782
ag2797
ag4206
ag1709
ag1849
ag1711
ag2598
ag3146
ag619
ag1635
ag2082
ag5254
ag1192
ag4636
ag3820
ag5360
ag6061
ag737
ag5617
ag2255
ag3798
ag1982
ag4956
ag4615
ag3370
ag5061
ag1989
ag5665
ag783
ag4978
ag6321
ag6220
ag5035
ag2409
ag1874
ag6066
ag5463
ag212
ag1506
ag5498
ag1606
ag1283
ag5780
ag1900
ag830
ag6218
ag5843
ag2293
ag5230
ag5722
ag5725
ag6203
ag3648
ag3845
ag319
ag4884
ag5959
ag5844
ag4494
ag4010
ag2179
ag2710
ag4006
ag2031
ag2970
ag4741
ag5354
ag3171
ag1142
ag3169
ag5466
ag670
ag4543
ag5328
ag1477
ag3234
ag6270
ag5421
ag5900
ag5899
ag4790
ag2496
ag2527
ag5836
ag5921
ag2180
ag5573
ag591
ag957
ag3050
ag3808
ag2941
ag738
ag3890
ag4527
ag4667
ag4588
ag2218
ag3137
ag3105
ag553
ag3134
ag229
ag1894
ag4032
ag3661
ag4435
ag4349
ag1018
ag3439
ag5717
ag3255
ag2276
ag2265
ag672
ag4804
ag3951
ag2744
ag3854
ag587
ag4091
ag2303
ag4597
ag123
ag1375
ag740
ag5219
ag3228
ag5490
ag1434
ag1130
ag4273
ag3490
ag2879
ag1803
ag959
ag5100
ag3205
ag6083
ag5768
ag5310
ag2855
ag4603
ag3677
ag310
ag4828
ag4897
ag6272
ag5945
ag2430
ag2344
ag3882
ag1878
ag5675
ag101
ag3111
ag3785
ag4617
ag1741
ag2866
ag1072
ag2779
ag4469
ag5301
ag5474
ag3512
ag4669
ag6073
ag3469
ag6051
ag4343
ag847
ag1915
ag3635
ag477
ag1502
ag6213
ag588
ag3828
ag1613
ag1769
ag454
ag4231
ag1058
ag4976
ag5115
ag2689
ag4059
ag2476
ag2382
ag4141
ag4508
ag1225
ag1353
ag4299
ag4408
ag4298
ag4118
ag2823
ag1043
ag5975
ag3559
ag3343
ag1098
ag4836
ag1447
ag5214
ag2813
ag3846
ag2158
ag3208
ag5334
ag2183
ag5197
ag4935
ag1456
ag397
ag4208
ag5275
ag2465
ag3345
ag5062
ag335
ag600
ag1595
ag2688
ag714
ag1683
ag2424
ag974
ag2926
ag3159
ag3341
ag2645
ag2088
ag2747
ag4255
ag5601
ag2686
ag1236
ag3518
ag1052
ag6124
ag89
ag5345
ag3810
ag3085
ag901
ag109
ag2479
ag2915
ag5688
ag134
ag4436
ag3527
ag1364
ag786
ag836
ag2588
ag1956
ag2232
ag3727
ag3342
ag3236
ag1094
ag1641
ag2109
ag4258
ag1545
ag2877
ag4565
ag4781
ag191
ag6288
ag3261
ag1491
ag1921
ag5004
ag5008
ag3215
ag2986
ag4120
ag5300
ag3781
ag2802
ag663
ag3731
ag6109
ag3585
ag1508
ag3226
ag3660
ag306
ag3437
ag1486
ag4489
ag5646
ag4140
ag453
ag3198
ag907
ag914
ag3031
ag5625
ag6333
ag5213
ag7
ag2887
ag4329
ag206
ag5751
ag5006
ag4121
ag5298
ag5746
ag4583
ag4291
ag6223
ag4106
ag364
ag705
ag2757
ag5658
ag5886
ag3181
ag2867
ag4562
ag460
ag2827
ag948
ag213
ag6194
ag3306
ag3732
ag3221
ag1290
ag2172
ag751
ag6117
ag5750
ag614
ag4285
ag4522
ag2811
ag3999
ag2791
ag4771
ag4284
ag2600
ag848
ag4283
ag4705
ag1413
ag5597
ag1249
ag4232
ag321
ag3515
ag3541
ag260
ag5829
ag3906
ag468
ag1195
ag285
ag302
ag5267
ag2730
ag4286
ag3996
ag5440
ag3754
ag896
ag4441
ag744
ag2626
ag2178
ag1834
ag2466
ag2984
ag1965
ag3565
ag2099
ag5513
ag2680
ag5276
ag5511
ag4047
ag4049
ag3418
ag5507
ag5005
ag1317
ag4778
ag5585
ag1097
ag1866
ag3285
ag3556
ag3582
ag305
ag414
ag4405
ag4526
ag154
ag2750
ag4308
ag2392
ag4984
ag3458
ag1253
ag4321
ag4518
ag2333
ag182
ag3524
ag1668
ag2010
ag3678
ag2033
ag4210
ag2825
ag2625
ag1521
ag6271
ag5604
ag1295
ag656
ag917
ag2910
ag2893
ag3814
ag1889
ag2923
ag1887
ag549
ag3194
ag3614
ag158
ag2580
ag4930
ag160
ag1911
ag2880
ag2784
ag4887
ag868
ag486
ag1875
ag4448
ag3574
ag2408
ag281
ag5391
ag4338
ag5524
ag3464
ag2045
ag6342
ag5678
ag3015
ag3943
ag2358
ag2191
ag519
ag3350
ag1677
ag650
ag5697
ag2733
ag5056
ag5493
ag742
ag5879
ag4924
ag5650
ag3344
ag5589
ag4378
ag6257
ag5050
ag2480
ag4677
ag5643
ag1371
ag1419
ag5581
ag2095
ag5542
ag2396
ag3905
ag3904
ag6222
ag5858
ag947
ag5738
ag1944
ag44
ag4203
ag224
ag970
ag5355
ag4327
ag1616
ag4011
ag1264
ag1876
ag1925
ag2631
ag2453
ag6006
ag5122
ag3157
ag5833
ag5562
ag5535
ag5698
ag5984
ag4713
ag4155
ag2330
ag4610
ag5152
ag4318
ag5682
ag1324
ag2788
ag4346
ag111
ag544
ag400
ag1519
ag4199
ag2302
ag5049
ag5045
ag3191
ag2163
ag3459
ag5556
ag4709
ag193
ag2266
ag4172
ag2909
ag5716
ag190
ag4710
ag2845
ag4246
ag1414
ag5316
ag3705
ag4707
ag3095
ag1105
ag980
ag5859
ag1423
ag5570
ag5415
ag4345
ag2075
ag257
ag5770
ag4513
ag1783
ag2851
ag3680
ag1292
ag3172
ag5961
ag4549
ag4573
ag5598
ag3173
ag3240
ag5550
ag178
ag1692
ag2339
ag3041
ag175
ag3160
ag6104
ag6111
ag265
ag1847
ag2020
ag3669
ag3576
ag2585
ag5948
ag2209
ag3805
ag1533
ag3438
ag6181
ag787
ag5935
ag495
ag4977
ag6022
ag1747
ag1872
ag3107
ag3214
ag823
ag2982
ag5506
ag5499
ag3202
ag2016
ag3538
ag1148
ag5257
ag2093
ag2195
ag2954
ag3867
ag772
ag2194
ag1978
ag3809
ag2091
ag3668
ag4399
ag1687
ag2684
ag5820
ag3892
ag1104
ag585
ag3602
ag6308
ag1774
ag1228
ag2086
ag2748
ag891
ag2428
ag5464
ag5229
ag371
ag5467
ag5704
ag256
ag4809
ag5916
ag1598
ag114
ag6161
ag2298
ag1286
ag4767
ag770
ag272
ag5502
ag4391
ag1349
ag1922
ag607
ag4911
ag2544
ag4256
ag3980
ag4018
ag2758
ag2445
ag2644
ag4635
ag2281
ag4239
ag4415
ag4830
ag5657
ag429
ag1809
ag1510
ag1904
ag231
ag396
ag5793
ag1490
ag146
ag3547
ag1237
ag2074
ag1021
ag1497
ag1614
ag630
ag1562
ag1481
ag883
ag4793
ag4796
ag5488
ag4316
ag4747
ag2390
ag912
ag5031
ag3791
ag5175
ag2231
ag2227
ag1231
ag1229
ag1812
ag4558
ag5319
ag5037
ag2520
ag4159
ag4795
ag6346
ag48
ag5130
ag5131
ag2139
ag2487
ag2287
ag1081
ag3385
ag3617
ag4267
ag774
ag3139
ag4293
ag2526
ag1241
ag3304
ag4164
ag5991
ag572
ag4401
ag2756
ag4466
ag2889
ag250
ag5321
ag3964
ag249
ag3420
ag30
ag5609
ag2081
ag5278
ag1705
ag1117
ag404
ag6238
ag6100
ag1498
ag416
ag688
ag5838
ag612
ag6025
ag3193
ag4602
ag6228
ag5655
ag3879
ag808
ag3338
ag4690
ag4432
ag3242
ag4861
ag5288
ag5606
ag209
ag3389
ag1011
ag1591
ag1995
ag5286
ag87
ag3989
ag393
ag6320
ag3155
ag5578
ag5341
ag510
ag1633
ag5424
ag1169
ag4652
ag334
ag731
ag958
ag522
ag5279
ag5107
ag4998
ag5403
ag5251
ag1368
ag3607
ag4623
ag3427
ag675
ag1101
ag5742
ag2776
ag3356
ag122
ag2774
ag5247
ag1258
ag5863
ag6166
ag3498
ag4668
ag1951
ag2624
ag5270
ag6012
ag3939
ag2538
ag4386
ag4027
ag1475
ag2347
ag3569
ag3035
ag5125
ag1844
ag34
ag4644
ag1110
ag4394
ag2570
ag6205
ag6201
ag2781
ag2778
ag2013
ag5092
ag884
ag1422
ag5158
ag6250
ag6252
ag3652
ag4052
ag4288
ag3337
ag1163
ag6158
ag1604
ag411
ag1791
ag2046
ag5198
ag512
ag1339
ag4456
ag2251
ag5408
ag3956
ag4138
ag2464
ag4590
ag2373
ag3333
ag1457
ag1896
ag1790
ag6164
ag1988
ag628
ag5425
ag621
ag2184
ag649
ag5326
ag1468
ag2211
ag2208
ag5663
ag1570
ag4598
ag4311
ag4727
ag1892
ag254
ag2765
ag3381
ag5966
ag3467
ag2433
ag2432
ag4189
ag2838
ag5552
ag4563
ag3479
ag5729
ag1007
ag2729
ag3121
ag3851
ag835
ag2789
ag646
ag5529
ag4287
ag2226
ag5914
ag5938
ag3156
ag361
ag2621
ag1054
ag1061
ag1792
ag5739
ag3079
ag606
ag2168
ag1804
ag4541
ag6017
ag159
ag5857
ag789
ag2574
ag5772
ag3908
ag1898
ag5001
ag1219
ag5521
ag1820
ag2622
ag6139
ag5218
ag5919
ag3461
ag3411
ag2873
ag748
ag584
ag2679
ag718
ag1818
ag2903
ag4807
ag999
ag4096
ag5371
ag2212
ag2360
ag2906
ag2262
ag2857
ag2235
ag5284
ag764
ag1133
ag5376
ag3807
ag622
ag6251
ag5676
ag5273
ag5813
ag2228
ag1176
ag1026
ag635
ag2938
ag496
ag6261
ag2717
ag909
ag1084
ag1177
ag5429
ag5911
ag3759
ag5994
ag2801
ag1569
ag36
ag5336
ag3071
ag1016
ag4738
ag5182
ag5088
ag3596
ag1771
ag4397
ag4601
ag4125
ag2331
ag1964
ag1860
ag3443
ag394
ag2341
ag4535
ag5849
ag576
ag5096
ag1530
ag3493
ag1977
ag5314
ag657
ag4314
ag1309
ag5912
ag4124
ag3611
ag5048
ag5943
ag2865
ag4852
ag4968
ag225
ag4105
ag859
ag3168
ag2637
ag1075
ag4183
ag5708
ag484
ag5695
ag3363
ag954
ag755
ag1478
ag1125
ag3040
ag2128
ag6105
ag1704
ag1706
ag5853
ag2659
ag4274
ag2318
ag5944
ag3153
ag1689
ag4478
ag5215
ag1488
ag1487
ag5244
ag4375
ag235
ag41
ag2423
ag4964
ag977
ag4442
ag6244
ag4393
ag314
ag6101
ag317
ag1859
ag3248
ag976
ag6185
ag1927
ag2378
ag5059
ag4277
ag4344
ag3092
ag1737
ag420
ag986
ag1122
ag1646
ag4481
ag2193
ag3380
ag4004
ag316
ag1083
ag3448
ag3494
ag6276
ag3516
ag4646
ag4332
ag5977
ag4753
ag3902
ag4537
ag77
ag268
ag1671
ag3222
ag838
ag5782
ag1953
ag4152
ag282
ag2775
ag4716
ag5781
ag1694
ag3054
ag4840
ag2493
ag1257
ag4616
ag5307
ag1417
ag3799
ag1600
ag5897
ag248
ag1312
ag1314
ag1534
ag5720
ag4484
ag1496
ag4893
ag4157
ag1755
ag3453
ag2337
ag1555
ag3451
ag5814
ag1159
ag3450
ag3665
ag992
ag2963
ag3229
ag6178
ag2364
ag222
ag108
ag4029
ag1376
ag479
ag2025
ag3348
ag1507
ag391
ag3816
ag3773
ag3416
ag3232
ag3244
ag3164
ag3797
ag2024
ag3928
ag5649
ag4031
ag5949
ag935
ag3719
ag3990
ag1897
ag4434
ag1348
ag5842
ag329
ag2224
ag4614
ag3334
ag2562
ag6026
ag1274
ag4026
ag6325
ag3039
ag1248
ag2306
ag1581
ag2854
ag358
ag4651
ag4365
ag6188
ag5519
ag1203
ag1703
ag5884
ag1449
ag1074
ag6293
ag3066
ag4446
ag3551
ag90
ag6176
ag644
ag4395
ag1503
ag6169
ag1895
ag2960
ag2070
ag3613
ag1670
ag2712
ag3755
ag5872
ag5432
ag4981
ag4400
ag1773
ag6039
ag1212
ag1666
ag4905
ag1821
ag2314
ag2590
ag2666
ag4837
ag5819
ag5642
ag3761
ag3629
ag22
ag4966
ag3330
ag558
ag3000
ag3008
ag5042
ag5383
ag785
ag5563
ag5554
ag1976
ag4862
ag5285
ag4948
ag2213
ag2154
ag4251
ag1929
ag1013
ag3019
ag5934
ag1957
ag975
ag1835
ag3581
ag2595
ag2030
ag4868
ag906
ag3751
ag1170
ag2196
ag3979
ag3548
ag3549
ag3514
ag3974
ag5120
ag3417
ag6249
ag5660
ag3506
ag6099
ag5755
ag5101
ag2437
ag6337
ag5347
ag2958
ag3864
ag4340
ag5453
ag2105
ag902
ag5603
ag2481
ag3877
ag2874
ag207
ag4276
ag4775
ag4979
ag5823
ag5547
ag5402
ag1767
ag4553
ag4858
ag3447
ag853
ag3074
ag2043
ag1698
ag3870
ag5471
ag2116
ag3286
ag1662
ag6033
ag5333
ag4176
ag1962
ag5968
ag3546
ag1754
ag5349
ag5148
ag6352
ag2017
ag2021
ag50
ag53
ag1752
ag3839
ag3863
ag4530
ag4139
ag4065
ag4814
ag1504
ag1718
ag1293
ag333
ag4078
ag3057
ag2029
ag4642
ag5191
ag4458
ag3313
ag5083
ag4013
ag4200
ag5111
ag1524
ag833
ag603
ag2962
ag5778
ag2332
ag2471
ag5888
ag3477
ag2545
ag3600
ag3599
ag4658
ag161
ag1801
ag5295
ag1758
ag525
ag4324
ag4568
ag278
ag2425
ag850
ag3145
ag3144
ag5423
ag513
ag3853
ag5483
ag4341
ag4872
ag5246
ag2107
ag1416
ag1003
ag1757
ag6242
ag1307
ag5208
ag4689
ag5532
ag5874
ag4136
ag2551
ag1617
ag1403
ag5871
ag2559
ag1261
ag3045
ag1028
ag3102
ag4178
ag2994
ag2721
ag4866
ag2978
ag3340
ag5538
ag1056
ag2916
ag4955
ag2125
ag291
ag4092
ag1808
ag242
ag6197
ag2992
ag2664
ag3152
ag5767
ag6324
ag226
ag461
ag4853
ag3480
ag3531
ag1853
ag2319
ag3080
ag2678
ag1575
ag1149
ag3841
ag5133
ag2996
ag5103
ag4315
ag6040
ag5627
ag4209
ag4034
ag4547
ag5269
ag2472
ag3883
ag2071
ag5051
ag33
ag3520
ag4095
ag3584
ag2166
ag5085
ag16
ag4195
ag5112
ag2289
ag298
ag5656
ag3778
ag176
ag3528
ag271
ag5470
ag551
ag418
ag5714
ag2156
ag6091
ag6210
ag872
ag894
ag3673
ag1615
ag6351
ag1678
ag1090
ag3957
ag1932
ag5711
ag5385
ag1931
ag2362
ag6296
ag2922
ag2072
ag821
ag125
ag119
ag5414
ag4898
ag4831
ag2608
ag6190
ag3321
ag5259
ag5099
ag1410
ag3674
ag4832
ag138
ag4160
ag5452
ag120
ag889
ag6259
ag4579
ag4770
ag3223
ag3752
ag5102
ag3383
ag492
ag4818
ag2846
ag4550
ag5922
ag2012
ag4851
ag170
ag2014
ag5173
ag1602
ag3367
ag408
ag1837
ag1843
ag392
ag1630
ag3081
ag1135
ag6087
ag4821
ag3366
ag2426
ag5145
ag227
ag5638
ag2806
ag5011
ag4017
ag3743
ag5710
ag1589
ag4825
ag5446
ag4913
ag5262
ag3368
ag2048
ag862
ag5478
ag6086
ag2079
ag4628
ag4902
ag4900
ag3185
ag6196
ag273
ag532
ag2869
ag1863
ag1724
ag1182
ag3132
ag2443
ag2468
ag5480
ag373
ag4764
ag4762
ag4100
ag444
ag1935
ag5973
ag2932
ag2077
ag1107
ag70
ag4773
ag4406
ag2246
ag4641
ag6062
ag5913
ag1817
ag3043
ag5740
ag5397
ag5009
ag6198
ag1870
ag816
ag1181
ag5020
ag2186
ag1985
ag386
ag1411
ag6294
ag1121
ag1563
ag1676
ag3316
ag5545
ag4104
ag2201
ag762
ag1998
ag2140
ag4479
ag4116
ag4300
ag1393
ag3158
ag3699
ag4439
ag927
ag3213
ag348
ag5211
ag1366
ag4988
ag4995
ag339
ag3881
ag1370
ag3482
ag5305
ag4048
ag4149
ag3422
ag3487
ag208
ag2617
ag2459
ag5132
ag4403
ag3971
ag3972
ag5374
ag5014
ag5368
ag1779
ag1345
ag5002
ag1582
ag645
ag67
ag1388
ag1802
ag2380
ag2557
ag3922
ag236
ag2165
ag2616
ag284
ag5628
ag1427
ag2814
ag3125
ag2170
ag4212
ag5151
ag5629
ag3530
ag6204
ag702
ag4225
ag398
ag2001
ag6177
ag1429
ag3281
ag5291
ag3272
ag5450
ag4319
ag1247
ag1482
ag5416
ag5177
ag5896
ag5753
ag2558
ag5757
ag6281
ag3511
ag4611
ag3510
ag4692
ag2145
ag2589
ag1328
ag307
ag6048
ag1183
ag5379
ag2582
ag4250
ag4907
ag95
ag3938
ag2997
ag3210
ag2148
ag1916
ag3431
ag6258
ag934
ag5930
ag5243
ag1418
ag2215
ag5956
ag3934
ag3566
ag3933
ag247
ag98
ag2882
ag3657
ag4174
ag5795
ag4173
ag4510
ag4609
ag3770
ag31
ag4123
ag2410
ag1489
ag1022
ag754
ag2073
ag4702
ag3484
ag5939
ag1019
ag2155
ag1529
ag5325
ag2494
ag1065
ag5136
ag1485
ag3605
ag4263
ag4923
ag4317
ag4751
ag5866
ag706
ag6113
ag3087
ag3690
ag6110
ag5881
ag6260
ag374
ag5671
ag4957
ag2862
ag1544
ag4949
ag5684
ag2019
ag2767
ag1580
ag6014
ag2668
ag6018
ag5792
ag3329
ag5615
ag2216
ag2766
ag4290
ag2279
ag2444
ag2450
ag324
ag3126
ag4252
ag1736
ag2322
ag3486
ag4207
ag4451
ag3483
ag1080
ag2790
ag631
ag633
ag3472
ag6009
ag4334
ag913
ag2895
ag5117
ag885
ag3958
ag2809
ag2
ag5258
ag325
ag3369
ag1401
ag5728
ag3644
ag3591
ag3637
ag3593
ag1776
ag1220
ag1558
ag3589
ag692
ag4501
ag3098
ag1992
ag4512
ag864
ag869
ag2995
ag758
ag4462
ag2352
ag1934
ag6031
ag4886
ag6102
ag3571
ag3196
ag3688
ag2998
ag5372
ag2819
ag5748
ag3497
ag939
ag3440
ag2110
ag2735
ag3091
ag6045
ag2830
ag3942
ag2921
ag124
ag132
ag807
ag2456
ag6088
ag2151
ag4234
ag2407
ag4271
ag428
ag4109
ag423
ag1679
ag3988
ag5038
ag533
ag6140
ag2726
ag5978
ag4198
ag2230
ag4347
ag1493
ag1308
ag2245
ag2652
ag4229
ag5183
ag2651
ag4994
ag1881
ag3279
ag5993
ag1355
ag597
ag1734
ag491
ag4188
ag2176
ag1174
ag3094
ag515
ag4674
ag2518
ag3278
ag5555
ag4224
ag3858
ag5764
ag4551
ag1202
ag1323
ag2007
ag4213
ag1700
ag4223
ag4604
ag3603
ag2676
ag3734
ag2835
ag3765
ag2772
ag3929
ag4791
ag6195
ag144
ag5260
ag2578
ag26
ag1733
ag5329
ag4521
ag5885
ag60
ag5430
ag1344
ag3086
ag2146
ag1739
ag3758
ag6309
ag150
ag620
ag4175
ag1347
ag4577
ag1311
ag5066
ag360
ag1254
ag2097
ag5179
ag1612
ag3667
ag3931
ag1597
ag5699
ag4634
ag3192
ag5331
ag5339
ag4402
ag5363
ag6097
ag1954
ag1631
ag854
ag6159
ag2609
ag2727
ag6171
ag4874
ag5040
ag988
ag4468
ag582
ag5891
ag559
ag960
ag3150
ag42
ag4196
ag4313
ag4871
ag730
ag2612
ag4084
ag4325
ag1273
ag4294
ag4881
ag4153
ag4428
ag3925
ag4879
ag498
ag4500
ag1091
ag4880
ag1949
ag1480
ag3545
ag2604
ag3414
ag2199
ag2484
ag928
ag1805
ag3269
ag4647
ag1901
ag687
ag3503
ag5970
ag6221
ag2620
ag5265
ag422
ag2039
ag2159
ag4909
ag2619
ag5475
ag6
ag4607
ag5142
ag1740
ag3836
ag4373
ag2931
ag1515
ag1208
ag5041
ag4582
ag1302
ag1654
ag1655
ag4600
ag204
ag2123
ag1653
ag5029
ag446
ag2514
ag2342
ag3838
ag2513
ag1440
ag5775
ag910
ag4161
ag2149
ag3650
ag5205
ag173
ag3630
ag3408
ag3949
ag6079
ag3671
ag6227
ag4829
ag4691
ag3568
ag3801
ag5033
ag2162
ag3166
ag4768
ag2264
ag5941
ag1971
ag1970
ag2820
ag2899
ag5654
ag1969
ag1178
ag3441
ag4877
ag1973
ag5960
ag2175
ag3282
ag1391
ag6349
ag1768
ag292
ag5052
ag4533
ag4531
ag4729
ag2549
ag4094
ag2177
ag2467
ag2060
ag6269
ag2052
ag43
ag955
ag4922
ag5290
ag4559
ag4449
ag289
ag1780
ag560
ag1386
ag5222
ag1030
ag2829
ag2770
ag1829
ag3189
ag290
ag5281
ag4672
ag355
ag1180
ag4102
ag2976
ag2579
ag5915
ag4572
ag5364
ag4477
ag4845
ag270
ag4498
ag4891
ag6037
ag5503
ag795
ag3704
ag3362
ag601
ag296
ag1280
ag4268
ag297
ag1108
ag4749
ag4746
ag2630
ag3950
ag4536
ag1338
ag1162
ag1979
ag2988
ag5189
ag638
ag963
ag604
ag3575
ag3065
ag5118
ag2587
ag3124
ag86
ag919
ag3463
ag801
ag4409
ag5744
ag2027
ag4899
ag6155
ag1421
ag5586
ag6262
ag2461
ag2210
ag5234
ag1354
ag3371
ag2250
ag4129
ag1726
ag792
ag2431
ag3283
ag6274
ag5449
ag2434
ag1958
ag4215
ag1862
ag2400
ag13
ag84
ag322
ag6207
ag4633
ag3550
ag3143
ag4820
ag4445
ag712
ag5252
ag3123
ag615
ag28
ag2691
ag8
ag5055
ag25
ag564
ag1648
ag6268
ag143
ag4925
ag3218
ag3910
ag4779
ag455
ag1824
ag1244
ag5898
ag3064
ag1605
ag5745
ag1867
ag3702
ag5923
ag5832
ag3720
ag915
ag6230
ag5460
ag2534
ag2933
ag1528
ag199
ag5824
ag3856
ag3277
ag2406
ag5825
ag5000
ag5826
ag5540
ag3063
ag3114
ag3695
ag5683
ag1696
ag63
ag234
ag1263
ag6156
ag410
ag3280
ag1216
ag4233
ag4815
ag372
ag3212
ag3036
ag1070
ag709
ag6141
ag1512
ag2348
ag2349
ag1111
ag202
ag1644
ag1722
ag4424
ag1884
ag4756
ag2753
ag3271
ag1382
ag4336
ag2918
ag4339
ag1041
ag81
ag5358
ag2351
ag2498
ag5679
ag274
ag2773
ag4801
ag243
ag1765
ag4679
ag6306
ag3067
ag6285
ag80
ag5771
ag3470
ag4024
ag810
ag4101
ag2475
ag73
ag765
ag2477
ag2824
ag1262
ag79
ag5447
ag4983
ag2131
ag2132
ag5420
ag5095
ag3061
ag5340
ag1782
ag1451
ag3460
ag3775
ag4381
ag851
ag852
ag3663
ag3432
ag4163
ag5054
ag4926
ag1890
ag5212
ag3397
ag4787
ag5077
ag3757
ag187
ag5730
ag6082
ag3924
ag2398
ag4083
ag2161
ag1315
ag5593
ag4016
ag2449
ag1189
ag739
ag6123
ag3002
ag40
ag1669
ag5332
ag5324
ag5701
ag5089
ag696
ag2416
ag4488
ag1463
ag2282
ag4056
ag3407
ag2286
ag825
ag5785
ag3402
ag4438
ag4202
ag3403
ag2482
ag1786
ag1221
ag6339
ag537
ag5196
ag2307
ag707
ag3888
ag2594
ag2427
ag2560
ag3023
ag1250
ag2942
ag4920
ag4889
ag4335
ag5588
ag1390
ag4241
ag5457
ag2949
ag3946
ag1082
ag4280
ag2911
ag5185
ag2454
ag6042
ag995
ag2237
ag464
ag3404
ag1552
ag2164
ag991
ag6000
ag5596
ag1511
ag4576
ag1479
ag1483
ag23
ag2991
ag1551
ag1012
ag4882
ag1827
ag1634
ag1194
ag1611
ag2623
ag1610
ag1632
ag1825
ag283
ag5237
ag5086
ag4190
ag2414
ag1466
ag1071
ag4062
ag701
ag4058
ag1660
ag1143
ag5693
ag997
ag5264
ag3784
ag1137
ag855
ag1713
ag110
ag2920
ag5854
ag3372
ag2462
ag2393
ag2571
ag1550
ag293
ag1663
ag359
ag5434
ag4904
ag4483
ag1239
ag4625
ag4895
ag2375
ag871
ag840
ag6078
ag3577
ag5817
ag1518
ag1405
ag1879
ag1227
ag1572
ag5087
ag3476
ag1260
ag5839
ag555
ag5936
ag4581
ag4374
ag3382
ag5512
ag1333
ag1157
ag5560
ag3729
ag3564
ag501
ag6093
ag2457
ag5801
ag1640
ag926
ag1112
ag921
ag6143
ag5779
ag2420
ag1207
ag5023
ag5834
ag2221
ag3827
ag500
ag2842
ag1738
ag4857
ag6136
ag2639
ag2366
ag930
ag2371
ag2389
ag3857
ag217
ag4219
ag2455
ag1546
ag1728
ag5473
ag3452
ag3399
ag879
ag634
ag2173
ag6060
ag5266
ag3911
ag2035
ag767
ag5680
ag2169
ag2794
ag2474
ag5989
ag5995
ag3936
ag4612
ag3401
ag900
ag4665
ag4245
ag5154
ag5505
ag3394
ag866
ag875
ag2901
ag4237
ag4706
ag846
ag3047
ag4717
ag1664
ag1383
ag4763
ag4001
ag3672
ag5917
ag3921
ag1909
ag167
ag4694
ag3639
ag3331
ag5377
ag3868
ag1585
ag5894
ag2950
ag417
ag1380
ag353
ag354
ag3200
ag129
ag1144
ag5982
ag2067
ag1665
ag3128
ag3525
ag769
ag837
ag5870
ag5613
ag2181
ag1378
ag5396
ag5044
ag923
ag556
ag3848
ag924
ag3231
ag380
ag5081
ag3903
ag599
ag898
ag5427
ag5616
ag1822
ag2957
ag3919
ag944
ag4499
ag3077
ag1321
ag920
ag4826
ag1128
ag3885
ag3796
ag3069
ag3793
ag897
ag5382
ag308
ag2856
ag6096
ag71
ag1313
ag5925
ag1210
ag1608
ag3628
ag3792
ag4675
ag6095
ag3891
ag6211
ag4099
ag6212
ag4392
ag1807
ag1717
ag3634
ag4812
ag793
ag4167
ag2927
ag3982
ag6216
ag2304
ag1940
ag2504
ag1505
ag2902
ag5207
ag1858
ag275
ag352
ag3042
ag4663
ag6054
ag2283
ag3276
ag2839
ag3789
ag1452
ag5789
ag5060
ag3325
ag1031
ag2891
ag3347
ag4798
ag5232
ag6153
ag1361
ag4127
ag6347
ag3579
ag5957
ag4033
ag3320
ag3429
ag2552
ag4684
ag1986
ag2523
ag258
ag1461
ag4180
ag3195
ag747
ag667
ag4932
ag5791
ag4962
ag4228
ag1855
ag5749
ag2533
ag3823
ag2716
ag2607
ag3744
ag3203
ag3148
ag5543
ag5544
ag1499
ag37
ag1912
ag2401
ag6217
ag5530
ag2728
ag3322
ag1540
ag5967
ag2320
ag4890
ag421
ag4570
ag590
ag2864
ag4619
ag2892
ag1060
ag4057
ag2948
ag5526
ag3608
ag3612
ag3254
ag5015
ag3475
ag5373
ag1836
ag2068
ag624
ag5454
ag2795
ag3724
ag2951
ag3182
ag1568
ag4337
ag2386
ag6263
ag4162
ag2536
ag4785
ag2764
ag4657
ag3253
ag3245
ag1119
ag3662
ag3762
ag3790
ag1959
ag3572
ag2723
ag2831
ag1708
ag5777
ag5776
ag5516
ag5595
ag1548
ag3082
ag2569
ag5517
ag3062
ag2044
ag2769
ag4777
ag6133
ag4460
ag3821
ag201
ag5846
ag3895
ag567
ag563
ag4046
ag4388
ag126
ag2495
ag6277
ag989
ag4524
ag5685
ag5681
ag678
ag918
ag5491
ag6029
ag2812
ag2872
ag2490
ag6135
ag1367
ag474
ag475
ag1886
ag1877
ag1352
ag3110
ag4596
ag5818
ag2312
ag2223
ag4744
ag4320
ag654
ag166
ag3787
ag3312
ag2160
ag5297
ag4165
ag521
ag1064
ag2489
ag4783
ag4398
ag2632
ag2394
ag2041
ag1749
ag3953
ag5694
ag244
ag4166
ag5241
ag5841
ag2136
ag4463
ag3920
ag3940
ag690
ag4472
ag1645
ag5612
ag4260
ag2247
ag2383
ag6131
ag4993
ag1642
ag4876
ag4502
ag4649
ag6241
ag2222
ag4444
ag5747
ag3318
ag6345
ag4020
ag3485
ag594
ag679
ag887
ag4833
ag6004
ag4220
ag794
ag4142
ag6034
ag6248
ag2541
ag5392
ag6235
ag5445
ag5378
ag4640
ag5851
ag462
ag3753
ag4865
ag1815
ag4586
ag5123
ag3776
ag3843
ag4971
ag1649
ag5312
ag5624
ag5227
ag574
ag6283
ag1415
ag137
ag3987
ag1647
ag4471
ag6298
ag6302
ag4772
ag697
ag5763
ag5161
ag1156
ag2972
ag3930
ag1035
ag6300
ag2363
ag2189
ag409
ag4792
ag6035
ag4613
ag680
ag1198
ag1199
ag2037
ag3428
ag1200
ag5533
ag4457
ag5337
ag814
ag1285
ag1325
ag4012
ag994
ag3786
ag142
ag5893
ag695
ag1186
ag3373
ag4191
ag5017
ag4330
ag188
ag1062
ag169
ag3788
ag4455
ag5186
ag6007
ag1226
ag5263
ag4060
ag5590
ag1761
ag1224
ag1424
ag3963
ag1444
ag366
ag1289
ag1832
ag4782
ag669
ag3033
ag230
ag2525
ag240
ag1688
ag4050
ag6090
ag5239
ag4302
ag4660
ag2586
ag3130
ag107
ag1358
ag2635
ag4430
ag3072
ag4742
ag2528
ag3025
ag1356
ag1659
ag1132
ag4464
ag3346
ag6160
ag5756
ag2803
ag1127
ag2663
ag5119
ag5633
ag140
ag2531
ag2740
ag5508
ag3199
ag3694
ag1577
ag4765
ag2532
ag571
ag2009
ag2596
ag5582
ag2599
ag3670
ag834
ag211
ag4475
ag3540
ag4021
ag1373
ag1004
ag6126
ag6183
ag1069
ag66
ag2370
ag1305
ag583
ag1473
ag4599
ag3012
ag433
ag4849
ag5282
ag5951
ag5572
ag5830
ag4113
ag2602
ag2083
ag4578
ag2187
ag3180
ag3795
ag9
ag2698
ag3237
ag2296
ag3028
ag330
ag2376
ag3027
ag2300
ag2301
ag3266
ag2355
ag1431
ag432
ag4525
ag2299
ag881
ag5903
ag1950
ag6137
ag402
ag1428
ag1891
ag279
ag1154
ag1389
ag507
ag2655
ag1123
ag4594
ag4545
ag4411
ag4240
ag4281
ag1523
ag2947
ag5249
ag1445
ag1251
ag1584
ag1197
ag61
ag2584
ag3543
ag1304
ag4714
ag5442
ag5645
ag1404
ag3315
ag3544
ag1076
ag2863
ag2284
ag2975
ag78
ag3689
ag4591
ag6329
ag6240
ag1637
ag4584
ag3270
ag5528
ag3465
ag344
ag1553
ag1179
ag2928
ag3468
ag2440
ag4975
ag6312
ag6326
ag6200
ag3654
ag2147
ag5274
ag6003
ag3806
ag911
ag4154
ag3410
ag1215
ag3606
ag2787
ag5082
ag1000
ag2883
ag756
ag2699
ag5093
ag562
ag3117
ag4051
ag4204
ag1607
ag3632
ag3521
ag3522
ag1372
ag4482
ag424
ag983
ag2713
ag2368
ag5479
ag1206
ag3129
ag5736
ag4244
ag3446
ag3907
ag331
ag609
ag3631
ag569
ag3623
ag100
ag5361
ag3832
ag2649
ag5
ag2648
ag5731
ag6348
ag3829
ag3822
ag5272
ag3310
ag3722
ag3307
ag2092
ag3812
ag1999
ag2000
ag3246
ag3535
ag746
ag3586
ag6191
ag1140
ag340
ag3093
ag4328
ag6089
ag4789
ag1246
ag3813
ag2752
ag3815
ag4377
ag3866
ag4676
ag3309
ag759
ag2327
ag514
ag552
ag139
ag703
ag2832
ag5194
ag4875
ag4654
ag4493
ag183
ag5357
ag3288
ag1453
ag1436
ag677
ag2567
ag5210
ag3141
ag3625
ag3624
ag1667
ag341
ag526
ag616
ag4333
ag4187
ag5489
ag6214
ag4390
ag4571
ag1650
ag1387
ag1384
ag2554
ag2843
ag5802
ag1363
ag3747
ag4326
ag2900
ag3056
ag2214
ag3314
ag1695
ag1188
ag1727
ag4556
ag937
ag2799
ag4221
ag1172
ag3413
ag4184
ag5128
ag3142
ag1109
ag2098
ag5686
ag4147
ag2234
ag6245
ag4117
ag3627
ag3701
ag6080
ag843
ag1495
ag685
ag4712
ag219
ag197
ag1432
ag194
ag708
ag3412
ag3488
ag4575
ag4758
ag2849
ag4990
ag3760
ag1712
ag1306
ag2106
ag1002
ag3147
ag867
ag3398
ag5098
ag6282
ag2768
ag720
ag2742
ag4486
ag6024
ag2924
ag2519
ag4538
ag3834
ag5706
ag1115
ag1089
ag4693
ag780
ag5724
ag5607
ag2310
ag5769
ag6232
ag4115
ag5187
ag2356
ag2357
ag3768
ag3769
ag4132
ag2720
ag39
ag1357
ag504
ag5330
ag1402
ag3918
ag5647
ag3298
ag6301
ag6299
ag3300
ag3299
ag5459
ag1222
ag3685
ag3296
ag5580
ag4958
ag790
ag4369
ag406
ag2252
ag3017
ag763
ag3750
ag3626
ag2497
ag895
ag2793
ag2576
ag5712
ag3051
ag3886
ag5605
ag3235
ag4542
ag2610
ag3293
ag6304
ag3915
ag5798
ag1420
ag1029
ag1033
ag4817
ag3083
ag3874
ag4389
ag5497
ag383
ag145
ag3297
ag363
ag4681
ag3944
ag2418
ag3771
ag1857
ag2935
ag3861
ag3871
ag1191
ag4254
ag6154
ag1845
ag1823
ag1559
ag3859
ag3101
ag3860
ag741
ag3651
ag4517
ag4103
ag1146
ag347
ag2182
ag4540
ag2336
ag1906
ag1994
ag3873
ag5534
ag3165
ag832
ag3756
ag2190
ag842
ag1337
ag5395
ag3767
ag6005
ag1138
ag3305
ag5822
ag5821
ag2064
ag691
ag2732
ag4158
ag2112
ag1164
ag5043
ag1044
ag629
ag6043
ag1270
ag4186
ag1048
ag996
ag4151
ag1351
ag5954
ag625
ag1735
ag1701
ag3406
ag1267
ag2315
ag3995
ag3837
ag2316
ag985
ag3188
ag3265
ag1564
ag4819
ag2354
ag3570
ag2142
ag1100
ag3578
ag4688
ag5837
ag237
ag2040
ag3501
ag4810
ag617
ag726
ag1697
ag1322
ag5184
ag3975
ag318
ag5790
ag5827
ag5365
ag6179
ag3850
ag5901
ag4912
ag6305
ag4666
ag3766
ag481
ag6063
ag3053
ag5518
ag5091
ag52
ag1848
ag6055
ag1987
ag5034
ag3537
ag1763
ag2746
ag627
ag3898
ag6121
ag4822
ag288
ag430
ag6146
ag5016
ag3824
ag5390
ag1284
ag3703
ag463
ag5400
ag5293
ag4425
ag4429
ag4511
ag2709
ag1259
ag1078
ag5268
ag3355
ag5983
ag4201
ag2725
ag1983
ag3442
ag752
ag483
ag4580
ag1141
ag3794
ag1459
ag152
ag4443
ag3014
ag467
ag5109
ag220
ag5659
ag5153
ag3243
ag1217
ag3723
ag6023
ag3889
ag5644
ag5003
ag5137
ag3393
ag2185
ag3763
ag3136
ag2403
ag3633
ag4719
ag4040
ag4470
ag2217
ag3984
ag6167
ag2463
ag141
ag4737
ag2860
ag5743
ag5484
ag1797
ag5848
ag2974
ag4860
ag1691
ag3324
ag4632
ag3140
ag4307
ag3190
ag4986
ag6233
ag640
ag1905
ag2821
ag1223
ag6119
ag5138
ag1856
ag4079
ag5976
ag2762
ag4643
ag682
ag3436
ag689
ag3597
ag2501
ag1690
ag1882
ag766
ag938
ag2402
ag2404
ag931
ag2908
ag3965
ag337
ag3913
ag2734
ag5890
ag5494
ag4431
ag2220
ag4447
ag2036
ag4145
ag1796
ag4023
ag2096
ag4552
ag777
ag3978
ag781
ag3455
ag3735
ag3059
ag3163
ag3326
ag1005
ag2550
ag2051
ag3186
ag2061
ag6011
ag5809
ag2174
ag3055
ag4803
ag1145
ag4193
ag2062
ag2522
ag4671
ag812
ag2979
ag349
ag1377
ag3992
ag1522
ag1010
ag2063
ag1651
ag246
ag2441
ag1406
ag3445
ag916
ag4037
ag4973
ag878
ag1543
ag806
ag5242
ag3400
ag1772
ag4878
ag5551
ag2028
ag2985
ag3594
ag6280
ag5786
ag476
ag929
ag5902
ag2200
ag6265
ag5531
ag3780
ag4554
ag965
ag3409
ag3718
ag51
ag5039
ag4960
ag724
ag5600
ag2197
ag5733
ag5541
ag1464
ag3084
ag356
ag1661
ag5076
ag2530
ag5075
ag1538
ag2943
ag4295
ag1396
ag3849
ag6184
ag5308
ag309
ag312
ag2633
ag1571
ag133
ag2955
ag3601
ag2192
ag6036
ag6047
ag3899
ag4366
ag3553
ag3358
ag1826
ag952
ag3154
ag5539
ag5985
ag516
ag3825
ag2134
ag2153
ag4331
ag4894
ag520
ag2084
ag6208
ag1126
ag5294
ag3207
ag893
ag575
ag4380
ag47
ag3419
ag438
ag5856
ag1561
ag3991
ag5661
ag5548
ag1657
ag2702
ag3682
ag3508
ag3681
ag4266
ag2015
ag1707
ag5322
ag761
ag447
ag5079
ag189
ag3900
ag4
ag2973
ag6106
ag1114
ag5105
ag3616
ag1893
ag6340
ag4410
ag581
ag5200
ag1211
ag4491
ag6128
ag6130
ag5352
ag813
ag2822
ag82
ag1282
ag1287
ag2254
ag5419
ag4848
ag2925
ag3225
ag5309
ag2613
ag5327
ag668
ag5176
ag1046
ag6314
ag1320
ag903
ag4089
ag3563
ag1972
ag5878
ag2605
ag1131
ag2601
ag5602
ag1652
ag2697
ag3375
ag3029
ag568
ag3738
ag1332
ag6234
ag3739
ag3740
ag5850
ag3847
ag5433
ag4520
ag1015
ag1609
ag336
ag6279
ag811
ag1088
ag5931
ag3135
ag1587
ag4682
ag4351
ag1639
ag480
ag4726
ag5058
ag3100
ag1068
ag5501
ag4752
ag4135
ag2912
ag4539
ag6053
ag4137
ag4112
ag186
ag3697
ag4991
ag4169
ag2597
ag4624
ag2914
ag5946
ag2989
ag2993
ag377
ag802
ag3567
ag799
ag1129
ag2435
ag4788
ag4015
ag3013
ag5527
ag6266
ag2657
ag6067
ag998
ag3131
ag3499
ag1472
ag971
ag641
ag3840
ag5974
ag1793
ag2335
ag2724
ag4947
ag4407
ag2328
ag2964
ag5124
ag798
ag4077
ag4080
ag5492
ag506
ag315
ag6152
ag1331
ag5386
ag1272
ag3730
ag2537
ag1095
ag2515
ag3291
ag2111
ag4724
ag435
ag665
ag681
ag4108
ag385
ag5299
ag15
ag1059
ag3217
ag4776
ag3595
ag5126
ag2673
ag1833
ag4305
ag3037
ag3534
ag130
ag4249
ag2241
ag3032
ag570
ag713
ag4739
ag4146
ag5188
ag1301
ag5443
ag5143
ag4806
ag1588
ag4605
ag1852
ag1861
ag276
ag2023
ag1938
ag1806
ag2543
ag1037
ag5797
ag6182
ag3336
ag2751
ag3638
ag2575
ag3073
ag181
ag2661
ag2953
ag2654
ag2499
ag4721
ag4306
ag24
ag800
ag1455
ag1408
ag3926
ag2114
ag3675
ag4396
ag5317
ag1541
ag1535
ag6132
ag949
ag860
ag228
ag6175
ag5302
ag857
ag623
ag1381
ag1869
ag2572
ag5280
ag943
ag261
ag264
ag4992
ag4055
ag3523
ag2755
ag3268
ag2345
ag179
ag6013
ag5226
ag2904
ag69
ag1926
ag5880
ag3108
ag263
ag5441
ag508
ag2968
ag3044
ag4211
ag3647
ag3317
ag2566
ag5351
ag2104
ag2485
ag2634
ag877
ag2952
ag5734
ag639
ag3653
ag5504
ag5873
ag2711
ag5584
ag5904
ag6008
ag636
ag1152
ag5557
ag6215
ag2439
ag5690
ag2188
ag2971
ag2329
ag2836
ag2323
ag2377
ag4953
ag2656
ag2539
ag58
ag4680
ag5195
ag5201
ag5536
ag3721
ag1730
ag710
ag4238
ag4150
ag300
ag4638
ag905
ag436
ag2870
ag505
ag301
ag1902
ag1134
ag5202
ag5032
ag38
ag4496
ag5486
ag1990
ag1040
ag2297
ag3433
ag1234
ag1204
ag694
ag6085
ag2871
ag6108
ag4869
ag2568
ag3533
ag1731
ag3473
ag6286
ag4495
ag1937
ag2940
ag5353
ag1586
ag1751
ag4093
ag3500
ag5224
ag2292
ag4352
ag4354
ag5393
ag5106
ag6236
ag1967
ag255
ag3201
ag1288
ag4426
ag6187
ag6278
ag1034
ag1509
ag1008
ag3717
ag2022
ag2553
ag287
ag3048
ag2682
ag4227
ag2907
ag4757
ag5575
ag1116
ag4087
ag589
ag5908
ag4715
ag2858
ag3287
ag565
ag817
ag6148
ag3941
ag294
ag1910
ag2761
ag2876
ag4427
ag11
ag4036
ag2573
ag6144
ag5979
ag5674
ag1243
ag4379
ag5718
ag2034
ag1269
ag1266
ag5485
ag1888
ag2144
ag174
ag4453
ag5306
ag5623
ag153
ag1079
ag2305
ag1158
ag5634
ag2117
ag637
ag3024
ag1936
ag1933
ag5571
ag6317
ag5689
ag4303
ag6064
ag5926
ag3495
ag3021
ag5147
ag6246
ag1814
ag4122
ag5046
ag4678
ag1153
ag441
ag4000
ag536
ag3388
ag4989
ag1596
ag3104
ag6275
ag6331
ag2288
ag1716
ag5209
ag2004
ag1638
ag2804
ag4156
ag3916
ag1899
ag3948
ag3994
ag6145
ag4003
ag3997
ag1275
ag1276
ag722
ag472
ag2807
ag4595
ag2885
ag4797
ag5962
ag3204
ag6174
ag2018
ag5942
ag1750
ag390
ag1310
ag652
ag4383
ag1118
ag3167
ag85
ag185
ag1296
ag1542
ag5013
ag2665
ag5097
ag5289
ag5248
ag2294
ag2118
ag488
ag4850
ag489
ag4952
ag3741
ag5950
ag5907
ag5193
ag4695
ag5428
ag4110
ag2961
ag1291
ag4505
ag1851
ag3679
ag216
ag3970
ag3646
ag1185
ag1020
ag165
ag1398
ag5653
ag5561
ag1592
ag4515
ag1742
ag6243
ag5754
ag4954
ag3742
ag6142
ag5987
ag128
ag5932
ag5766
ag3875
ag1830
ag338
ag345
ag5958
ag4928
ag4364
ag5969
ag4587
ag4606
ag3831
ag3259
ag4786
ag1948
ag4134
ag4927
ag4107
ag5940
ag1067
ag2577
ag6072
ag757
ag1392
ag6307
ag4216
ag5696
ag3746
ag2365
ag3659
ag822
ag946
ag4214
ag4414
ag5869
ag4655
ag5174
ag4931
ag950
ag5030
ag1336
ag1437
ag118
ag4514
ag3782
ag2615
ag3161
ag5296
ag2248
ag904
ag2478
ag5864
ag2090
ag4170
ag4560
ag5021
ag3097
ag1209
ag1785
ag1788
ag1055
ag5852
ag5591
ag1547
ag3174
ag3395
ag6332
ag4143
ag4722
ag3058
ag4497
ag3238
ag218
ag890
ag346
ag5877
ag4044
ag2694
ag1526
ag2693
ag3425
ag3378
ag2460
ag1256
ag4585
ag3046
ag4030
ag5482
ag5933
ag729
ag2259
ag5426
ag10
ag494
ag4450
ag3308
ag4564
ag6344
ag1397
ag5640
ag2636
ag1721
ag2878
ag925
ag2897
ag57
ag205
ag5496
ag2340
ag5113
ag4025
ag2127
ag2646
ag2783
ag4412
ag566
ag5369
ag2206
ag2038
ag933
ag5476
ag4485
ag5691
ag3026
ag2236
ag2837
ag1050
ag1566
ag4711
ag5955
ag303
ag1492
ag4230
ag499
ag2076
ag4967
ag29
ag27
ag973
ag35
ag3955
ag6356
ag106
ag326
ag2258
ag378
ag6112
ag6350
ag4567
ag4774
ag5346
ag725
ag4128
ag3826
ag611
ag2980
ag1213
ag5990
ag4226
ag3954
ag4185
ag4659
ag2722
ag4622
ag1201
ag1745
ag4053
ag164
ag664
ag4353
ag3006
ag3517
ag3247
ag210
ag3257
ag2859
ag1996
ag1997
ag2641
ag3937
ag4629
ag5726
ag784
ag5335
ag5803
ag4492
ag3258
ag2263
ag2817
ag1923
ag5417
ag4131
ag3519
ag1975
ag2483
ag3233
ag328
ag4097
ag1961
ag121
ag5892
ag4009
ag1567
ag3772
ag1233
ag196
ag804
ag4569
ag6354
ag1594
ag1193
ag195
ag6335
ag192
ag613
ag445
ag1681
ag2944
ag1438
ag1299
ag311
ag1868
ag3187
ag115
ag5228
ag497
ag1433
ag775
ag6193
ag4760
ag5553
ag4759
ag531
ag2690
ag4217
ag3016
ag815
ag1656
ag2749
ag3917
ag1579
ag1525
ag5965
ag2469
ag1756
ag1342
ag1343
ag1038
ag4038
ag3676
ag5422
ag4519
ag3664
ag3471
ag388
ag6122
ag1686
ag2412
ag1684
ag5160
ag3249
ag4708
ag2280
ag593
ag5157
ag2239
ag381
ag3426
ag5860
ag2100
ag3424
ag4723
ag5159
ag2816
ag407
ag5715
ag876
ag5510
ag5509
ag6180
ag4387
ag369
ag1036
ag711
ag3736
ag2905
ag1494
ag1374
ag3552
ag4061
ag4823
ag5162
ag1205
ag6015
ag4780
ag5800
ag2421
ag2670
ag5238
ag2249
ag2614
ag2242
ag6334
ag5053
ag2669
ag157
ag3852
ag1759
ag1565
ag280
ag723
ag2737
ag4701
ag5217
ag535
ag2696
ag5018
ag448
ag1106
ag3966
ag1941
ag2743
ag610
ag4310
ag5788
ag987
ag5287
ag3415
ag4042
ag541
ag1828
ag104
ag2309
ag1362
ag1151
ag922
ag502
ag3590
ag4289
ag4490
ag6115
ag2977
ag5574
ag4098
ag573
ag5687
ag4574
ag539
ag2372
ag147
ag4064
ag1470
ag2157
ag538
ag5323
ag2798
ag5808
ag4750
ag83
ag1102
ag2135
ag1124
ag3457
ag1092
ag809
ag94
ag5773
ag2966
ag546
ag5026
ag4870
ag6134
ag3981
ag2754
ag5971
ag550
ag2388
ag543
ag180
ag5759
ag4304
ag6291
ag841
ag1319
ag1039
ag5618
ag2397
ag5794
ag5007
ag659
ag4766
ag5350
ag3162
ag102
ag5732
ag214
ag818
ag3869
ag839
ag5713
ag608
ag579
ag4309
ag4883
ag1943
ag3216
ag2529
ag5401
ag873
ag6292
ag561
ag753
ag20
ag177
ag605
ag5811
ag5762
ag473
ag716
ag3777
ag3998
ag5810
ag3774
ag1281
ag4645
ag3405
ag942
ag1702
ag18
ag3901
ag4218
ag1762
ag6310
ag805
ag5253
ag1880
ag1883
ag3301
ag2681
ag3303
ag4086
ag4784
ag1165
ag3302
ag3295
ag3969
ag4718
ag953
ag6002
ag4557
ag3113
ag940
ag5348
ag155
ag982
ag1086
ag5431
ag92
ag1168
ag4621
ag5381
ag1171
ag4282
ag849
ag2583
ag1173
ag3430
ag4507
ag858
ag5592
ag5920
ag527
ag5104
ag5709
ag2840
ag4745
ag3961
ag3474
ag112
ag5156
ag2066
ag4915
ag3884
ag136
ag2042
ag964
ag978
ag4944
ag5140
ag3421
ag2638
ag6010
ag6030
ag3396
ag5025
ag2229
ag4534
ag981
ag493
ag2343
ag3456
ag4847
ag5963
ag6327
ag5998
ag5692
ag1326
ag4272
ag4035
ag1981
ag1556
ag3598
ag1230
ag6341
ag4885
ag530
ag2937
ag3030
ag2108
ag2547
ag2486
ag3284
ag1318
ag5367
ag5796
ag2939
ag3645
ag1775
ag1409
ag1150
ag2675
ag4054
ag3502
ag5342
ag5304
ag886
ag295
ag1501
ag648
ag4824
ag4728
ag387
ag3745
ag5707
ag2198
ag5705
ag5889
ag5036
ag1335
ag3748
ag4970
ag1379
ag3749
ag6020
ag149
ag2650
ag2085
ag1939
ag1303
ag1300
ag2934
ag829
ag2890
ag3239
ag1155
ag684
ag3359
ag485
ag4842
ag503
ag3862
ag415
ag3264
ag3068
ag4867
ag874
ag1465
ag399
ag3294
ag826
ag1871
ag1426
ag2700
ag5997
ag5937
ag2981
ag5664
ag2786
ag5700
ag3099
ag3580
ag2470
ag653
ag171
ag2780
ag945
ag2415
ag4043
ag4987
ag1514
ag6076
ag1446
ag602
ag3802
ag6077
ag2267
ag2847
ag2658
ag5918
ag4555
ag259
ag4546
ag6267
ag2129
ag4627
ag6027
ag5537
ag1685
ag2143
ag5203
ag4748
ag4735
ag2701
ag1093
ag6303
ag127
ag3118
ag796
ag778
ag5865
ag4743
ag2411
ag1539
ag6289
ag6001
ag4270
ag3176
ag1920
ag5206
ag470
ag5758
ag5723
ag5028
ag2603
ag1536
ag2708
ag5388
ag3007
ag2207
ag5144
ag2913
ag5855
ag4236
ag1537
ag3289
ag3122
ag3562
ag2660
ag5472
ag286
ag6070
ag3855
ag343
ag3018
ag5905
ag5630
ag342
ag2429
ag3666
ag5199
ag2119
ag6057
ag1729
ag6052
ag2808
ag3010
ag3819
ag3692
ag3256
ag4279
ag3009
ag4509
ag4985
ag1467
ag2032
ag5611
ag5387
ag3536
ag4639
ag1435
ag251
ag517
ag899
ag6273
ag1799
ag2990
ag3726
ag3698
ag1025
ag2844
ag5343
ag2714
ag266
ag413
ag3844
ag643
ag1120
ag4261
ag253
ag984
ag1341
ag3292
ag3151
ag49
ag3138
ag4292
ag5220
ag642
ag1527
ag1865
ag2999
ag1087
ag5261
ag3374
ag2898
ag2643
ag4504
ag6189
ag3728
ag490
ag469
ag5999
ag4811
ag238
ag4561
ag2796
ag1513
ag3491
ag3894
ag4618
ag3090
ag2763
ag357
ag5190
ag1218
ag4997
ag2308
ag5546
ag545
ag3088
ag2295
ag1334
ag1327
ag2792
ag4376
ag4740
ag3262
ag2946
ag4133
ag845
ag5231
ag3444
ag2500
ag2687
ag5481
ag3089
ag2413
ag2141
ag4863
ag3558
ag327
ag3985
ag3649
ag3542
ag2671
ag2771
ag1057
ag5721
ag4090
ag3323
ag45
ag5370
ag3977
ag2103
ag3267
ag2047
ag3800
ag2760
ag457
ag2069
ag1557
ag4548
ag458
ag700
ag704
ag3335
ag3220
ag2458
ag2517
ag6206
ag5765
ag5761
ag5359
ag1032
ag2268
ag2956
ag5719
ag3275
ag1682
ag5875
ag6316
ag5240
ag6046
ag3290
ag2359
ag1732
ag1399
ag3496
ag1603
ag4114
ag54
ag3923
ag1800
ag4301
ag5576
ag2240
ag1147
ag1787
ag3872
ag4242
ag6255
ag3945
ag427
ag431
ag1599
ag1601
ag4111
ag1394
ag2731
ag3504
ag1085
ag3349
ag5619
ag2888
ag4384
ag32
ag4892
ag3960
ag1017
ag5271
ag4661
ag59
ag2137
ag6114
ag2379
ag465
ag3893
ag1077
ag1760
ag844
ag6313
ag3526
ag2087
ag4205
ag661
ag1161
ag1743
ag3619
ag6098
ag6355
ag2005
ag350
ag3177
ag1984
ag4720
ag1340
ag466
ag4385
ag3251
ag2395
ag3489
ag4192
ag2334
ag719
ag6032
ag96
ag626
ag3561
ag2202
ag3691
ag5057
ag19
ag5651
ag299
ag3112
ag3116
ag4528
ag5250
ag2233
ag4171
ag5525
ag5318
ag1952
ag2564
ag3620
ag3621
ag5303
ag1460
ag241
ag1764
ag4503
ag2244
ag6075
ag3976
ag2491
ag3932
ag439
ag1329
ag2253
ag782
ag4473
ag4670
ag3947
ag6069
ag5080
ag2540
ag5398
ag3583
ag2640
ag557
ag2391
ag2387
ag4593
ag2828
ag3636
ag4413
ag5952
ag3643
ag3554
ag3962
ag3641
ag3507
ag1268
ag5181
ag5523
ag3250
ag6071
ag1725
ag990
ag3377
ag6172
ag6295
ag993
ag4259
ag172
ag5579
ag3376
ag6065
ag4465
ag727
ag6068
ag2115
ag5577
ag3642
ag523
ag3115
ag412
ag2080
ag443
ag3529
ag5641
ag2436
ag5010
ag2121
ag5637
ag6202
ag2124
ag2739
ag5741
ag5192
ag3034
ag1042
ag1400
ag5639
ag5375
ag2945
ag6284
ag1450
ag6353
ag5972
ag6092
ag184
ag4813
ag5292
ag2002
ag5236
ag2438
ag2008
ag2592
ag1454
ag2419
ag1942
ag2285
ag4656
ag2133
ag3655
ag4247
ag698
ag5235
ag2122
ag4972
ag2291
ag2113
ag2381
ag651
ag5245
ag1846
ag395
ag3454
ag6149
ag1674
ag4846
ag4433
ag1673
ag1672
ag3004
ag5027
ag1629
ag5996
ag5311
ag3230
ag5558
ag1781
ag2204
ag1680
ag1795
ag1265
ag1240
ag3686
ag269
ag3687
ag401
ag3206
ag1235
ag6041
ag4168
ag2930
ag3818
ag4943
ag5233
ag5752
ag647
ag451
ag3386
ag4063
ag6297
ag5094
ag5621
ag4461
ag5141
ag3693
ag1252
ag1255
ag745
ag1425
ag2815
ag5139
ag5461
ag389
ag4827
ag6050
ag1714
ag1531
ag3379
ag2094
ag17
ag5134
ag2833
ag4903
ag3986
ag4119
ag1914
ag776
ag5225
ag5583
ag4257
ag4761
ag2741
ag1593
ag4197
ag4686
ag2311
ag1346
ag1798
ag4908
ag4916
ag4082
ag4906
ag6059
ag3384
ag2003
ag5366
ag1723
ag1175
ag4592
ag686
ag1794
ag5677
ag2102
ag3842
ag6343
ag4859
ag6322
ag4921
ag367
ag116
ag2581
ag4022
ag103
ag3737
ag2369
ag5399
ag3803
ag2225
ag5816
ag1850
ag5831
ag673
ag5380
ag452
ag1675
ag4631
ag4437
ag2385
ag511
ag3070
ag658
ag6319
ag5114
ag1476
ag3588
ag1500
ag2800
ag76
ag2451
ag6016
ag5774
ag4144
ag2556
ag148
ag1715
ag1991
ag3005
ag5549
ag2417
ag1658
ag6120
ag6118
ag5216
ag5477
ag1049
ag2987
ag828
ag117
ag4356
ag2674
ag1903
ag384
ag478
ag449
ag471
ag4323
ag1924
ag221
ag2848
ag4999
ag267
ag1184
ag4474
ag2448
ag4942
ag5180
ag3492
ag6056
ag2959
ag5867
ag277
ag6225
ag4440
ag4532
ag4805
ag6290
ag5444
ag1166
ag4673
ag5315
ag540
ag548
ag1968
ag2120
ag773
ag4130
ag4969
ag618
ag3078
ag4014
ag4459
ag3060
ag3175
ag223
ag3952
ag5702
ag3811
ag6170
ag2203
ag1816
ag1103
ag4222
ag1913
ag3604
ag2886
ag1439
ag3615
ag323
ag1139
ag1770
ag4262
ag4566
ag863
ag3364
ag6224
ag2853
ag3178
ag99
ag2611
ag951
ag5924
ag3096
ag3227
ag4523
ag6229
ag5784
ag1517
ag46
ag6074
ag6323
ag6247
ag3076
ag6019
ag2834
ag88
ag4544
ag4945
ag3392
ag693
ag5815
ag55
ag5283
ag2317
ag1136
ag1458
ag1974
ag4041
ag1330
ag5840
ag4910
ag5362
ag6311
ag2662
ag3075
ag2875
ag1710
ag598
ag6044
ag5737
ag5084
ag1063
ag6049
ag2542
ag1993
ag3020
ag5022
ag788
ag3423
ag2261
ag1442
ag3481
ag4248
ag200
ag4126
ag5565
ag450
ag6318
ag459
ag2983
ag1554
ag5847
ag5947
ag4808
ag1365
ag4269
ag3120
ag1930
ag5636
ag5146
ag2785
ag198
ag3339
ag3252
ag2367
ag4769
ag262
ag5760
ag2353
ag3361
ag5652
ag3830
ag2350
ag1928
ag1699
ag2338
ag5981
ag5567
ag1469
ag1073
ag1190
ag168
ag4864
ag932
ag3927
ag5727
ag1113
ag820
ag2894
ag5953
ag5155
ag1350
ag5394
ag3658
ag304
ag4182
ag2884
ag3555
ag5868
ag803
ag6103
ag3912
ag771
ag733
ag5116
ag5520
ag1053
ag1907
ag3592
ag4529
ag4194
ag332
ag2718
ag5256
ag3360
ag1789
ag4243
ag3127
ag743
ag4480
ag2810
ag6287
ag2759
ag2325
ag2238
ag6328
ag1045
ag4452
ag518
ag1576
ag1574
ag3170
ag1573
ag1744
ag1407
ag1448
ag908
ag351
ag4177
ag4008
ag797
ag97
ag528
ag6226
ag4081
ag5277
ag4088
ag1636
ag2593
ag1946
ag4961
ag72
ag74
ag4888
ag1919
ag3184
ag1014
ag6256
ag4487
ag2667
ag3273
ag1271
ag3179
ag3725
ag1918
ag131
ag3049
ag1693
ag1854
ag4963
ag5204
ag5012
ag3959
ag3684
ag2736
ag856
ag861
ag750
ag2745
ag1917
ag969
ag1777
ag4982
ag2205
ag5127
ag578
ag3332
ag6315
ag1474
ag3387
ag14
ag888
ag3513
ag3327
ag666
ag3224
ag1027
ag580
ag1945
ag93
ag3001
ag768
ag3003
ag4589
ag56
ag3038
ag699
ag3716
ag1947
ag676
ag3914
ag870
ag4917
ag1549
ag4372
ag3909
ag1831
ag4996
ag405
ag5648
ag1238
ag595
ag5135
ag6330
ag6163
ag2606
ag5828
ag5338
ag105
ag5906
ag6165
ag5047
ag5876
ag3109
ag3509
ag2677
ag5344
ag4835
ag2326
ag5599
ag3887
ag683
ag5735
ag4914
ag2881
ag6239
ag2719
ag529
ag3897
ag5787
ag4929
ag2777
ag4648
ag1214
ag2050
ag91
ag4066
ag2653
ag2917
ag3973
ag3609
ag5964
ag362
ag5121
ag3
ag721
ag4264
ag2524
ag3656
ag5495
ag1297
ag2361
ag1778
ag2715
ag509
ag1980
ag6107
ag5626
ag6058
ag2919
ag3779
ag586
ag12
ag1819
ag671
ag936
ag5356
ag1096
ag6186
ag1628
ag252
ag245
ag5910
ag434
ag4664
ag674
ag6116
ag1359
ag715
ag5631
ag4800
ag1369
ag2642
ag966
ag1578
ag1051
ag1864
ag968
ag967
ag4854
ag1
ag5389
ag5835
ag3449
ag4637
ag2565
ag6168
ag6157
ag2101
ag2492
ag2219
ag135
ag1532
ag203
ag3263
ag1196
ag4265
ag2969
ag2967
ag1430
ag4950
ag4085
ag2936
ag4630
ag2965
ag2446
ag2078
ag1471
ag21
ag1560
ag2629
ag2405
ag1441
ag1748
ag4253
ag3434
ag3435
ag2442
ag4181
ag1908
ag4019
ag2868
ag4322
ag6138
ag2321
ag1167
ag5150
ag6028
ag2826
ag2627
ag2290
ag892
ag5845
ag313
ag2452
ag3274
ag4816
ag5320
ag3817
ag3764
ag6231
ag5783
ag2555
ag4370
ag3311
ag3133
ag6254
ag1963
ag2738
ag1245
ag1484
ag4802
ag5090
ag1960
ag554
ag3328
ag542
ag4278
ag5313
aI90
tp6358
.